(lp0
(i__main__
TrafficEntry
p1
(dp2
S'metaSid'
p3
I69
sS'lat'
p4
F40.6035305
sS'segmentID'
p5
F11599.0
sS'metaID'
p6
VEC0EB31C-F925-4F2B-BBDB-6316D62BD563
p7
sS'roadName'
p8
VOCEAN TERRACE
p9
sS'fromSt'
p10
VBUTTERWORTH AVENUE
p11
sS'metaUpdatedTime'
p12
I1399538778
sS'metaPosition'
p13
I69
sS'toSt'
p14
VCOVERLY AVENUE
p15
sS'date'
p16
cdatetime
datetime
p17
(S'\x07\xdc\n\x03\x00\x00\x00\x00\x00\x00'
p18
tp19
Rp20
sS'metaCreated'
p21
V399231
p22
sS'meta'
p23
V{\u000a}
p24
sS'traffic'
p25
(lp26
F15.0
aF7.0
aF4.0
aF0.0
aF3.0
aF17.0
aF42.0
aF218.0
aF242.0
aF122.0
aF127.0
aF179.0
aF247.0
aF273.0
aF376.0
aF372.0
aF410.0
aF446.0
aF336.0
aF163.0
aF101.0
aF69.0
aF46.0
aF42.0
asS'long'
p27
F-74.10526709999999
sS'direction'
p28
VSB
p29
sS'metaCreatedTime'
p30
I1399538778
sS'metaUpdated'
p31
V399231
p32
sS'ID'
p33
F4.0
sba(i__main__
TrafficEntry
p34
(dp35
g3
I217
sg4
F40.587480199999995
sg5
F18846.0
sg6
VF29225DF-8D8A-4BBC-8492-97DCB7CDA3A3
p36
sg8
VSHORE PKWY
p37
sg10
VBAY 46th ST
p38
sg12
I1399538778
sg13
I217
sg14
V27th AVE
p39
sg16
g17
(S'\x07\xdc\n\x0c\x00\x00\x00\x00\x00\x00'
p40
tp41
Rp42
sg21
V399231
p43
sg23
V{\u000a}
p44
sg25
(lp45
F6.0
aF6.0
aF1.0
aF3.0
aF0.0
aF3.0
aF6.0
aF14.0
aF21.0
aF29.0
aF16.0
aF22.0
aF19.0
aF14.0
aF38.0
aF26.0
aF34.0
aF29.0
aF35.0
aF27.0
aF22.0
aF18.0
aF23.0
aF14.0
asg27
F-73.99127949999999
sg28
VNB
p46
sg30
I1399538778
sg31
V399231
p47
sg33
F13.0
sba(i__main__
TrafficEntry
p48
(dp49
g3
I441
sg4
F40.61484780000001
sg5
F19991.0
sg6
V37544009-4CBE-4EC9-810E-D538534B1AF5
p50
sg8
V18 AVENUE
p51
sg10
V72 STREET
p52
sg12
I1399538778
sg13
I441
sg14
V73 STREET
p53
sg16
g17
(S'\x07\xdc\n\x18\x00\x00\x00\x00\x00\x00'
p54
tp55
Rp56
sg21
V399231
p57
sg23
V{\u000a}
p58
sg25
(lp59
F48.0
aF41.0
aF36.0
aF44.0
aF8.0
aF0.0
aF0.0
aF0.0
aF0.0
aF0.0
aF0.0
aF0.0
aF0.0
aF0.0
aF0.0
aF0.0
aF0.0
aF0.0
aF0.0
aF0.0
aF194.0
aF196.0
aF137.0
aF108.0
asg27
F-73.99450915
sg28
VNB
p60
sg30
I1399538778
sg31
V399231
p61
sg33
F24.0
sba(i__main__
TrafficEntry
p62
(dp63
g3
I607
sg4
F40.6344154
sg5
F21142.0
sg6
VA35A5951-E41C-439A-B5C7-14951C5DC225
p64
sg8
V51 STREET
p65
sg10
V13 AVENUE
p66
sg12
I1399538778
sg13
I607
sg14
VNew Utrecht Avenue
p67
sg16
g17
(S'\x07\xdc\n\x1b\x00\x00\x00\x00\x00\x00'
p68
tp69
Rp70
sg21
V399231
p71
sg23
V{\u000a}
p72
sg25
(lp73
F8.0
aF5.0
aF4.0
aF0.0
aF4.0
aF4.0
aF9.0
aF7.0
aF21.0
aF15.0
aF17.0
aF26.0
aF17.0
aF15.0
aF14.0
aF19.0
aF30.0
aF30.0
aF82.0
aF129.0
aF225.0
aF185.0
aF103.0
aF113.0
asg27
F-73.99412015
sg28
VWB
p74
sg30
I1399538778
sg31
V399231
p75
sg33
F33.0
sba(i__main__
TrafficEntry
p76
(dp77
g3
I681
sg4
F40.68675975
sg5
F22023.0
sg6
V72F4ED87-382F-440F-9BB0-B6641F337E0B
p78
sg8
V COLUMBIA STREET 
p79
sg10
V DE GRAW STREET 
p80
sg12
I1399538778
sg13
I681
sg14
V KANE STREET  
p81
sg16
g17
(S'\x07\xdc\n\x16\x00\x00\x00\x00\x00\x00'
p82
tp83
Rp84
sg21
V399231
p85
sg23
V{\u000a}
p86
sg25
(lp87
F28.0
aF22.0
aF17.0
aF12.0
aF10.0
aF21.0
aF68.0
aF242.0
aF82.0
aF0.0
aF0.0
aF0.0
aF0.0
aF0.0
aF0.0
aF0.0
aF49.0
aF248.0
aF207.0
aF142.0
aF104.0
aF81.0
aF55.0
aF53.0
asg27
F-74.00186375
sg28
VSB
p88
sg30
I1399538778
sg31
V399231
p89
sg33
F38.0
sba(i__main__
TrafficEntry
p90
(dp91
g3
I738
sg4
F40.68339985
sg5
F22409.0
sg6
V2D41B3C1-0485-47E0-A574-F245F4E36AD2
p92
sg8
VCOURT STREET
p93
sg10
VDE GRAW STREET
p94
sg12
I1399538779
sg13
I738
sg14
VSACKETT STREET
p95
sg16
g17
(S'\x07\xdc\n\x16\x00\x00\x00\x00\x00\x00'
p96
tp97
Rp98
sg21
V399231
p99
sg23
V{\u000a}
p100
sg25
(lp101
F157.0
aF99.0
aF87.0
aF52.0
aF41.0
aF58.0
aF41.0
aF0.0
aF0.0
aF0.0
aF0.0
aF0.0
aF0.0
aF0.0
aF0.0
aF0.0
aF692.0
aF778.0
aF778.0
aF511.0
aF394.0
aF290.0
aF237.0
aF235.0
asg27
F-73.995384
sg28
VSB
p102
sg30
I1399538779
sg31
V399231
p103
sg33
F42.0
sba(i__main__
TrafficEntry
p104
(dp105
g3
I768
sg4
F40.6843738
sg5
F22921.0
sg6
V430DDF3E-2D96-4376-B3D6-606CE2236D17
p106
sg8
V3 AVENUE
p107
sg10
VDEAN STREET
p108
sg12
I1399538779
sg13
I768
sg14
VPACIFIC STREET
p109
sg16
g17
(S'\x07\xdc\n\x16\x00\x00\x00\x00\x00\x00'
p110
tp111
Rp112
sg21
V399231
p113
sg23
V{\u000a}
p114
sg25
(lp115
F51.0
aF39.0
aF21.0
aF26.0
aF43.0
aF75.0
aF84.0
aF0.0
aF0.0
aF0.0
aF0.0
aF0.0
aF0.0
aF0.0
aF0.0
aF57.0
aF510.0
aF483.0
aF398.0
aF323.0
aF256.0
aF204.0
aF175.0
aF163.0
asg27
F-73.98135769999999
sg28
VNB
p116
sg30
I1399538779
sg31
V399231
p117
sg33
F44.0
sba(i__main__
TrafficEntry
p118
(dp119
g3
I798
sg4
F40.6848497
sg5
F22924.0
sg6
VF7C9E732-FCD5-44D1-ABEA-388725BE4C59
p120
sg8
V ATLANTIC AVENUE 
p121
sg10
V 3 AVENUE  
p122
sg12
I1399538779
sg13
I798
sg14
V 4 AVENUE  
p123
sg16
g17
(S'\x07\xdc\n\x16\x00\x00\x00\x00\x00\x00'
p124
tp125
Rp126
sg21
V399231
p127
sg23
V{\u000a}
p128
sg25
(lp129
F277.0
aF177.0
aF76.0
aF0.0
aF0.0
aF0.0
aF0.0
aF0.0
aF0.0
aF0.0
aF0.0
aF1.0
aF1.0
aF0.0
aF0.0
aF15.0
aF1025.0
aF1074.0
aF1058.0
aF911.0
aF945.0
aF776.0
aF732.0
aF615.0
asg27
F-73.9795014
sg28
VWB
p130
sg30
I1399538779
sg31
V399231
p131
sg33
F45.0
sba(i__main__
TrafficEntry
p132
(dp133
g3
I1231
sg4
F40.62901705
sg5
F28067.0
sg6
VF3A505D2-FB02-4A3E-8487-076FB217416A
p134
sg8
VDITMAS AVENUE
p135
sg10
VEAST 13 STREET
p136
sg12
I1399538779
sg13
I1231
sg14
VEAST 14 STREET
p137
sg16
g17
(S'\x07\xdc\n\x18\x00\x00\x00\x00\x00\x00'
p138
tp139
Rp140
sg21
V399231
p141
sg23
V{\u000a}
p142
sg25
(lp143
F59.0
aF34.0
aF29.0
aF25.0
aF17.0
aF33.0
aF93.0
aF216.0
aF342.0
aF2.0
aF0.0
aF0.0
aF0.0
aF0.0
aF0.0
aF0.0
aF0.0
aF0.0
aF0.0
aF0.0
aF0.0
aF0.0
aF0.0
aF84.0
asg27
F-73.9635402
sg28
VEB
p144
sg30
I1399538779
sg31
V399231
p145
sg33
F72.0
sba(i__main__
TrafficEntry
p146
(dp147
g3
I1242
sg4
F40.62901705
sg5
F28067.0
sg6
VF9237DA8-D603-4E20-BA96-40901D22EB61
p148
sg8
VDITMAS AVENUE
p149
sg10
VEAST 13 STREET
p150
sg12
I1399538779
sg13
I1242
sg14
VEAST 14 STREET
p151
sg16
g17
(S'\x07\xdc\n\x18\x00\x00\x00\x00\x00\x00'
p152
tp153
Rp154
sg21
V399231
p155
sg23
V{\u000a}
p156
sg25
(lp157
F52.0
aF31.0
aF32.0
aF33.0
aF60.0
aF82.0
aF134.0
aF0.0
aF0.0
aF0.0
aF0.0
aF0.0
aF0.0
aF0.0
aF0.0
aF0.0
aF0.0
aF0.0
aF0.0
aF0.0
aF0.0
aF0.0
aF0.0
aF61.0
asg27
F-73.9635402
sg28
VWB
p158
sg30
I1399538779
sg31
V399231
p159
sg33
F72.0
sba(i__main__
TrafficEntry
p160
(dp161
g3
I1260
sg4
F40.640231400000005
sg5
F28069.0
sg6
V396D45E3-37D5-4444-A8D4-FA0901987148
p162
sg8
VCORTELYOU ROAD
p163
sg10
VEAST 11 STREET
p164
sg12
I1399538779
sg13
I1260
sg14
VEAST 12 STREET
p165
sg16
g17
(S'\x07\xdc\n\x02\x00\x00\x00\x00\x00\x00'
p166
tp167
Rp168
sg21
V399231
p169
sg23
V{\u000a}
p170
sg25
(lp171
F99.0
aF75.0
aF52.0
aF54.0
aF58.0
aF44.0
aF63.0
aF37.0
aF0.0
aF0.0
aF122.0
aF207.0
aF215.0
aF202.0
aF222.0
aF223.0
aF212.0
aF196.0
aF223.0
aF201.0
aF179.0
aF167.0
aF158.0
aF136.0
asg27
F-74.09384315
sg28
VWB
p172
sg30
I1399538779
sg31
V399231
p173
sg33
F73.0
sba(i__main__
TrafficEntry
p174
(dp175
g3
I2953
sg4
F40.68941905
sg5
F49572.0
sg6
V5F858225-F008-43CF-B896-A5EB4C5A0C20
p176
sg8
V JAMAICA AVENUE 
p177
sg10
V AUTUMN AVENUE 
p178
sg12
I1399538781
sg13
I2953
sg14
V EUCLID AVENUE  
p179
sg16
g17
(S'\x07\xdd\x02\x06\x00\x00\x00\x00\x00\x00'
p180
tp181
Rp182
sg21
V399231
p183
sg23
V{\u000a}
p184
sg25
(lp185
F0.0
aF0.0
aF0.0
aF0.0
aF0.0
aF0.0
aF0.0
aF0.0
aF0.0
aF0.0
aF0.0
aF0.0
aF0.0
aF0.0
aF0.0
aF0.0
aF0.0
aF0.0
aF0.0
aF0.0
aF0.0
aF0.0
aF173.0
aF138.0
asg27
F-73.8737297
sg28
VEB
p186
sg30
I1399538781
sg31
V399231
p187
sg33
F208.0
sba(i__main__
TrafficEntry
p188
(dp189
g3
I1503
sg4
F40.677744
sg5
F28934.0
sg6
VD301A2C8-EBA1-429D-8376-D69AA035D77F
p190
sg8
V6 AVENUE
p191
sg10
VST JOHN'S PLACE
p192
sg12
I1399538780
sg13
I1503
sg14
VSTERLING PLACE
p193
sg16
g17
(S'\x07\xdc\n\x19\x00\x00\x00\x00\x00\x00'
p194
tp195
Rp196
sg21
V399231
p197
sg23
V{\u000a}
p198
sg25
(lp199
F58.0
aF23.0
aF17.0
aF17.0
aF21.0
aF40.0
aF96.0
aF178.0
aF294.0
aF153.0
aF196.0
aF11.0
aF0.0
aF151.0
aF233.0
aF222.0
aF255.0
aF319.0
aF264.0
aF203.0
aF166.0
aF158.0
aF124.0
aF90.0
asg27
F-73.9763934
sg28
VSB
p200
sg30
I1399538780
sg31
V399231
p201
sg33
F87.0
sba(i__main__
TrafficEntry
p202
(dp203
g3
I1505
sg4
F40.677744
sg5
F28934.0
sg6
V13FF62A4-D801-423A-AD3C-C5D770BFB272
p204
sg8
V6 AVENUE
p205
sg10
VST JOHN'S PLACE
p206
sg12
I1399538780
sg13
I1505
sg14
VSTERLING PLACE
p207
sg16
g17
(S'\x07\xdc\n\x1b\x00\x00\x00\x00\x00\x00'
p208
tp209
Rp210
sg21
V399231
p211
sg23
V{\u000a}
p212
sg25
(lp213
F91.0
aF84.0
aF63.0
aF49.0
aF34.0
aF33.0
aF48.0
aF89.0
aF111.0
aF167.0
aF200.0
aF149.0
aF50.0
aF0.0
aF84.0
aF170.0
aF279.0
aF267.0
aF243.0
aF246.0
aF203.0
aF165.0
aF133.0
aF160.0
asg27
F-73.9763934
sg28
VSB
p214
sg30
I1399538780
sg31
V399231
p215
sg33
F87.0
sba(i__main__
TrafficEntry
p216
(dp217
g3
I1529
sg4
F41.70490795
sg5
F28976.0
sg6
V6D2BCF86-C653-4580-9A1B-147639401BFB
p218
sg8
V ASHLAND PLACE 
p219
sg10
V 4 AVENUE  
p220
sg12
I1399538780
sg13
I1529
sg14
V LAFAYETTE AVENUE 
p221
sg16
g17
(S'\x07\xdc\n\x15\x00\x00\x00\x00\x00\x00'
p222
tp223
Rp224
sg21
V399231
p225
sg23
V{\u000a}
p226
sg25
(lp227
F62.0
aF40.0
aF30.0
aF13.0
aF0.0
aF0.0
aF0.0
aF0.0
aF17.0
aF27.0
aF47.0
aF60.0
aF80.0
aF112.0
aF144.0
aF98.0
aF101.0
aF95.0
aF104.0
aF77.0
aF50.0
aF41.0
aF28.0
aF23.0
asg27
F-73.83515005
sg28
VNB
p228
sg30
I1399538780
sg31
V399231
p229
sg33
F89.0
sba(i__main__
TrafficEntry
p230
(dp231
g3
I1544
sg4
F41.70490795
sg5
F28976.0
sg6
V7280AA94-644F-4181-AD4D-1FC4F513EADE
p232
sg8
V ASHLAND PLACE 
p233
sg10
V 4 AVENUE  
p234
sg12
I1399538780
sg13
I1544
sg14
V LAFAYETTE AVENUE 
p235
sg16
g17
(S'\x07\xdc\n\x1a\x00\x00\x00\x00\x00\x00'
p236
tp237
Rp238
sg21
V399231
p239
sg23
V{\u000a}
p240
sg25
(lp241
F73.0
aF41.0
aF25.0
aF26.0
aF38.0
aF97.0
aF243.0
aF405.0
aF462.0
aF357.0
aF267.0
aF240.0
aF220.0
aF225.0
aF175.0
aF114.0
aF284.0
aF277.0
aF258.0
aF77.0
aF0.0
aF100.0
aF172.0
aF146.0
asg27
F-73.83515005
sg28
VSB
p242
sg30
I1399538780
sg31
V399231
p243
sg33
F89.0
sba(i__main__
TrafficEntry
p244
(dp245
g3
I1550
sg4
F40.6685234
sg5
F28997.0
sg6
VDFCAD5EF-2A46-4DD0-8C17-340D04C4A8B0
p246
sg8
VPROSPECT PARK WEST
p247
sg10
V2 STREET
p248
sg12
I1399538780
sg13
I1550
sg14
V3 STREET
p249
sg16
g17
(S'\x07\xdc\n\x16\x00\x00\x00\x00\x00\x00'
p250
tp251
Rp252
sg21
V399231
p253
sg23
V{\u000a}
p254
sg25
(lp255
F178.0
aF56.0
aF49.0
aF37.0
aF0.0
aF0.0
aF6.0
aF11.0
aF13.0
aF9.0
aF16.0
aF20.0
aF7.0
aF4.0
aF25.0
aF17.0
aF17.0
aF274.0
aF795.0
aF708.0
aF419.0
aF320.0
aF226.0
aF251.0
asg27
F-73.9735785
sg28
VSB
p256
sg30
I1399538780
sg31
V399231
p257
sg33
F90.0
sba(i__main__
TrafficEntry
p258
(dp259
g3
I1568
sg4
F40.6760903
sg5
F29030.0
sg6
V320342F3-6225-4AD8-9DCD-1BEA05935C5F
p260
sg8
V7 AVENUE
p261
sg10
VLINCOLN PLACE
p262
sg12
I1399538780
sg13
I1568
sg14
VST JOHN'S PLACE
p263
sg16
g17
(S'\x07\xdc\n\x02\x00\x00\x00\x00\x00\x00'
p264
tp265
Rp266
sg21
V399231
p267
sg23
V{\u000a}
p268
sg25
(lp269
F85.0
aF81.0
aF52.0
aF52.0
aF19.0
aF18.0
aF37.0
aF70.0
aF87.0
aF0.0
aF59.0
aF216.0
aF206.0
aF221.0
aF216.0
aF200.0
aF186.0
aF219.0
aF193.0
aF190.0
aF184.0
aF87.0
aF83.0
aF78.0
asg27
F-73.97434779999999
sg28
VNB
p270
sg30
I1399538780
sg31
V399231
p271
sg33
F92.0
sba(i__main__
TrafficEntry
p272
(dp273
g3
I1782
sg4
F40.7390871
sg5
F32031.0
sg6
V92ABECBE-3E04-4FD9-BA02-25FF27A9B2D2
p274
sg8
VHUDSON STREET
p275
sg10
VGANSEVOORT STREET
p276
sg12
I1399538780
sg13
I1782
sg14
VHORATIO STREET
p277
sg16
g17
(S'\x07\xdc\n\x10\x00\x00\x00\x00\x00\x00'
p278
tp279
Rp280
sg21
V399231
p281
sg23
V{\u000a}
p282
sg25
(lp283
F376.0
aF293.0
aF188.0
aF157.0
aF135.0
aF193.0
aF405.0
aF499.0
aF622.0
aF640.0
aF632.0
aF686.0
aF663.0
aF609.0
aF626.0
aF638.0
aF665.0
aF635.0
aF696.0
aF702.0
aF614.0
aF476.0
aF440.0
aF0.0
asg27
F-74.0054445
sg28
VSB
p284
sg30
I1399538780
sg31
V399231
p285
sg33
F107.0
sba(i__main__
TrafficEntry
p286
(dp287
g3
I1783
sg4
F40.7390871
sg5
F32031.0
sg6
V61410E2A-5C97-4401-8CC7-3A30295E21BF
p288
sg8
VHUDSON STREET
p289
sg10
VGANSEVOORT STREET
p290
sg12
I1399538780
sg13
I1783
sg14
VHORATIO STREET
p291
sg16
g17
(S'\x07\xdc\n\x11\x00\x00\x00\x00\x00\x00'
p292
tp293
Rp294
sg21
V399231
p295
sg23
V{\u000a}
p296
sg25
(lp297
F0.0
aF311.0
aF255.0
aF168.0
aF159.0
aF219.0
aF411.0
aF546.0
aF630.0
aF626.0
aF666.0
aF628.0
aF626.0
aF610.0
aF589.0
aF564.0
aF653.0
aF631.0
aF688.0
aF705.0
aF700.0
aF586.0
aF583.0
aF532.0
asg27
F-74.0054445
sg28
VSB
p298
sg30
I1399538780
sg31
V399231
p299
sg33
F107.0
sba(i__main__
TrafficEntry
p300
(dp301
g3
I1790
sg4
F40.71800479999999
sg5
F32066.0
sg6
V0052E286-7454-41E3-B3A3-DD4BFD3399F7
p302
sg8
VCORTLANDT ALLEY
p303
sg10
VWALKER STREET
p304
sg12
I1399538780
sg13
I1790
sg14
VWHITE STREET
p305
sg16
g17
(S'\x07\xdc\n\x0e\x00\x00\x00\x00\x00\x00'
p306
tp307
Rp308
sg21
V399231
p309
sg23
V{\u000a}
p310
sg25
(lp311
F0.0
aF8.0
aF13.0
aF30.0
aF7.0
aF1.0
aF1.0
aF3.0
aF6.0
aF12.0
aF13.0
aF9.0
aF9.0
aF9.0
aF5.0
aF9.0
aF9.0
aF7.0
aF9.0
aF6.0
aF6.0
aF3.0
aF5.0
aF1.0
asg27
F-74.00209275
sg28
VSB
p312
sg30
I1399538780
sg31
V399231
p313
sg33
F108.0
sba(i__main__
TrafficEntry
p314
(dp315
g3
I1791
sg4
F40.71800479999999
sg5
F32066.0
sg6
V9809DEF9-83B7-4B7C-B552-891617A4E36E
p316
sg8
VCORTLANDT ALLEY
p317
sg10
VWALKER STREET
p318
sg12
I1399538780
sg13
I1791
sg14
VWHITE STREET
p319
sg16
g17
(S'\x07\xdc\n\x0f\x00\x00\x00\x00\x00\x00'
p320
tp321
Rp322
sg21
V399231
p323
sg23
V{\u000a}
p324
sg25
(lp325
F3.0
aF2.0
aF0.0
aF0.0
aF0.0
aF4.0
aF0.0
aF7.0
aF3.0
aF2.0
aF6.0
aF14.0
aF4.0
aF6.0
aF7.0
aF10.0
aF3.0
aF0.0
aF2.0
aF7.0
aF8.0
aF0.0
aF2.0
aF1.0
asg27
F-74.00209275
sg28
VSB
p326
sg30
I1399538780
sg31
V399231
p327
sg33
F108.0
sba(i__main__
TrafficEntry
p328
(dp329
g3
I1792
sg4
F40.71800479999999
sg5
F32066.0
sg6
V1D900CB5-6025-4839-A49B-177931D1BEC6
p330
sg8
VCORTLANDT ALLEY
p331
sg10
VWALKER STREET
p332
sg12
I1399538780
sg13
I1792
sg14
VWHITE STREET
p333
sg16
g17
(S'\x07\xdc\n\x10\x00\x00\x00\x00\x00\x00'
p334
tp335
Rp336
sg21
V399231
p337
sg23
V{\u000a}
p338
sg25
(lp339
F3.0
aF0.0
aF2.0
aF1.0
aF0.0
aF14.0
aF2.0
aF6.0
aF10.0
aF17.0
aF5.0
aF9.0
aF11.0
aF9.0
aF15.0
aF13.0
aF3.0
aF7.0
aF8.0
aF8.0
aF5.0
aF3.0
aF2.0
aF2.0
asg27
F-74.00209275
sg28
VSB
p340
sg30
I1399538780
sg31
V399231
p341
sg33
F108.0
sba(i__main__
TrafficEntry
p342
(dp343
g3
I1793
sg4
F40.71800479999999
sg5
F32066.0
sg6
VD9AAA591-9D30-4D6D-856A-F3758179BDE7
p344
sg8
VCORTLANDT ALLEY
p345
sg10
VWALKER STREET
p346
sg12
I1399538780
sg13
I1793
sg14
VWHITE STREET
p347
sg16
g17
(S'\x07\xdc\n\x11\x00\x00\x00\x00\x00\x00'
p348
tp349
Rp350
sg21
V399231
p351
sg23
V{\u000a}
p352
sg25
(lp353
F2.0
aF1.0
aF1.0
aF2.0
aF0.0
aF3.0
aF2.0
aF10.0
aF5.0
aF14.0
aF12.0
aF19.0
aF8.0
aF4.0
aF7.0
aF2.0
aF11.0
aF13.0
aF12.0
aF13.0
aF2.0
aF5.0
aF1.0
aF3.0
asg27
F-74.00209275
sg28
VSB
p354
sg30
I1399538780
sg31
V399231
p355
sg33
F108.0
sba(i__main__
TrafficEntry
p356
(dp357
g3
I1794
sg4
F40.71800479999999
sg5
F32066.0
sg6
VCA9EC99E-6646-4BBD-BB54-252DA3AFBD37
p358
sg8
VCORTLANDT ALLEY
p359
sg10
VWALKER STREET
p360
sg12
I1399538780
sg13
I1794
sg14
VWHITE STREET
p361
sg16
g17
(S'\x07\xdc\n\x12\x00\x00\x00\x00\x00\x00'
p362
tp363
Rp364
sg21
V399231
p365
sg23
V{\u000a}
p366
sg25
(lp367
F4.0
aF8.0
aF4.0
aF2.0
aF0.0
aF3.0
aF8.0
aF8.0
aF6.0
aF5.0
aF7.0
aF11.0
aF4.0
aF9.0
aF12.0
aF8.0
aF9.0
aF12.0
aF12.0
aF7.0
aF3.0
aF4.0
aF5.0
aF6.0
asg27
F-74.00209275
sg28
VSB
p368
sg30
I1399538780
sg31
V399231
p369
sg33
F108.0
sba(i__main__
TrafficEntry
p370
(dp371
g3
I1795
sg4
F40.71800479999999
sg5
F32066.0
sg6
V828BB5FB-5455-4CC5-8E0C-BB81B51E84F7
p372
sg8
VCORTLANDT ALLEY
p373
sg10
VWALKER STREET
p374
sg12
I1399538780
sg13
I1795
sg14
VWHITE STREET
p375
sg16
g17
(S'\x07\xdc\n\x13\x00\x00\x00\x00\x00\x00'
p376
tp377
Rp378
sg21
V399231
p379
sg23
V{\u000a}
p380
sg25
(lp381
F4.0
aF8.0
aF3.0
aF1.0
aF1.0
aF0.0
aF3.0
aF5.0
aF8.0
aF20.0
aF15.0
aF10.0
aF8.0
aF9.0
aF5.0
aF7.0
aF3.0
aF17.0
aF10.0
aF7.0
aF7.0
aF4.0
aF3.0
aF3.0
asg27
F-74.00209275
sg28
VSB
p382
sg30
I1399538780
sg31
V399231
p383
sg33
F108.0
sba(i__main__
TrafficEntry
p384
(dp385
g3
I1796
sg4
F40.71800479999999
sg5
F32066.0
sg6
VE715D4E7-6C6B-461F-8426-6A7A20DF5BBC
p386
sg8
VCORTLANDT ALLEY
p387
sg10
VWALKER STREET
p388
sg12
I1399538780
sg13
I1796
sg14
VWHITE STREET
p389
sg16
g17
(S'\x07\xdc\n\x02\x00\x00\x00\x00\x00\x00'
p390
tp391
Rp392
sg21
V399231
p393
sg23
V{\u000a}
p394
sg25
(lp395
F1.0
aF3.0
aF6.0
aF8.0
aF1.0
aF5.0
aF1.0
aF4.0
aF3.0
aF10.0
aF9.0
aF13.0
aF9.0
aF12.0
aF16.0
aF15.0
aF8.0
aF5.0
aF9.0
aF7.0
aF3.0
aF0.0
aF1.0
aF2.0
asg27
F-74.00209275
sg28
VSB
p396
sg30
I1399538780
sg31
V399231
p397
sg33
F108.0
sba(i__main__
TrafficEntry
p398
(dp399
g3
I1797
sg4
F40.71800479999999
sg5
F32066.0
sg6
VDEBCFBBD-AD53-4792-A60E-F17BE027D602
p400
sg8
VCORTLANDT ALLEY
p401
sg10
VWALKER STREET
p402
sg12
I1399538780
sg13
I1797
sg14
VWHITE STREET
p403
sg16
g17
(S'\x07\xdc\n\x15\x00\x00\x00\x00\x00\x00'
p404
tp405
Rp406
sg21
V399231
p407
sg23
V{\u000a}
p408
sg25
(lp409
F5.0
aF2.0
aF5.0
aF9.0
aF0.0
aF1.0
aF2.0
aF2.0
aF10.0
aF13.0
aF12.0
aF9.0
aF8.0
aF8.0
aF7.0
aF5.0
aF5.0
aF8.0
aF11.0
aF4.0
aF6.0
aF0.0
aF2.0
aF1.0
asg27
F-74.00209275
sg28
VSB
p410
sg30
I1399538780
sg31
V399231
p411
sg33
F108.0
sba(i__main__
TrafficEntry
p412
(dp413
g3
I2438
sg4
F40.76055445
sg5
F36403.0
sg6
VB6042589-C43D-4E2F-B400-A5EC2DB723F0
p414
sg8
V 1 AVENUE  
p415
sg10
V EAST 60 STREET  
p416
sg12
I1399538780
sg13
I2438
sg14
V EAST 61 STREET  
p417
sg16
g17
(S'\x07\xdc\n\x13\x00\x00\x00\x00\x00\x00'
p418
tp419
Rp420
sg21
V399231
p421
sg23
V{\u000a}
p422
sg25
(lp423
F608.0
aF380.0
aF244.0
aF215.0
aF294.0
aF417.0
aF1042.0
aF1148.0
aF1207.0
aF1115.0
aF840.0
aF0.0
aF981.0
aF1055.0
aF1226.0
aF1241.0
aF896.0
aF1031.0
aF876.0
aF1019.0
aF855.0
aF768.0
aF730.0
aF681.0
asg27
F-73.9612859
sg28
VNB
p424
sg30
I1399538780
sg31
V399231
p425
sg33
F172.0
sba(i__main__
TrafficEntry
p426
(dp427
g3
I2478
sg4
F40.7684963
sg5
F36803.0
sg6
VACC95128-AAAE-47AF-9B4D-E17640D90272
p428
sg8
VYORK AVENUE
p429
sg10
VEAST 74 STREET
p430
sg12
I1399538780
sg13
I2478
sg14
VEAST 75 STREET
p431
sg16
g17
(S'\x07\xdc\n\x10\x00\x00\x00\x00\x00\x00'
p432
tp433
Rp434
sg21
V399231
p435
sg23
V{\u000a}
p436
sg25
(lp437
F66.0
aF38.0
aF25.0
aF79.0
aF165.0
aF388.0
aF621.0
aF742.0
aF449.0
aF511.0
aF622.0
aF645.0
aF642.0
aF602.0
aF622.0
aF610.0
aF324.0
aF22.0
aF0.0
aF0.0
aF7.0
aF271.0
aF263.0
aF151.0
asg27
F-73.95255939999998
sg28
VNB
p438
sg30
I1399538780
sg31
V399231
p439
sg33
F176.0
sba(i__main__
TrafficEntry
p440
(dp441
g3
I2889
sg4
F40.681887849999995
sg5
F43660.0
sg6
V34733DF5-4120-479D-B752-575A34EE17A4
p442
sg8
V HOWARD AVENUE 
p443
sg10
V BAINBRIDGE STREET 
p444
sg12
I1399538781
sg13
I2889
sg14
V CHAUNCEY STREET 
p445
sg16
g17
(S'\x07\xdd\x02\x06\x00\x00\x00\x00\x00\x00'
p446
tp447
Rp448
sg21
V399231
p449
sg23
V{\u000a}
p450
sg25
(lp451
F58.0
aF50.0
aF20.0
aF4.0
aF0.0
aF16.0
aF1.0
aF14.0
aF10.0
aF12.0
aF75.0
aF43.0
aF8.0
aF73.0
aF188.0
aF235.0
aF225.0
aF115.0
aF171.0
aF118.0
aF72.0
aF92.0
aF133.0
aF95.0
asg27
F-73.9198012
sg28
VNB
p452
sg30
I1399538781
sg31
V399231
p453
sg33
F204.0
sba(i__main__
TrafficEntry
p454
(dp455
g3
I2900
sg4
F40.667846999999995
sg5
F48370.0
sg6
V7A68452C-61BC-489A-994F-F5F9D0CBD1C2
p456
sg8
V HEGEMAN AVENUE 
p457
sg10
V FOUNTAIN AVENUE 
p458
sg12
I1399538781
sg13
I2900
sg14
V LOGAN STREET  
p459
sg16
g17
(S'\x07\xdd\x02\x05\x00\x00\x00\x00\x00\x00'
p460
tp461
Rp462
sg21
V399231
p463
sg23
V{\u000a}
p464
sg25
(lp465
F15.0
aF2.0
aF6.0
aF0.0
aF6.0
aF7.0
aF22.0
aF89.0
aF95.0
aF53.0
aF51.0
aF74.0
aF49.0
aF68.0
aF71.0
aF90.0
aF80.0
aF104.0
aF89.0
aF61.0
aF46.0
aF45.0
aF39.0
aF39.0
asg27
F-73.87327045
sg28
VWB
p466
sg30
I1399538781
sg31
V399231
p467
sg33
F205.0
sba(i__main__
TrafficEntry
p468
(dp469
g3
I2913
sg4
F40.68267685
sg5
F49090.0
sg6
VC0BFBFEB-9126-42E1-88D1-89F764610C7C
p470
sg8
V VERMONT PLACE 
p471
sg10
V HIGHLAND BOULEVARD 
p472
sg12
I1399538781
sg13
I2913
sg14
V JACKIE ROBINSON PKWY 
p473
sg16
g17
(S'\x07\xdd\x02\x06\x00\x00\x00\x00\x00\x00'
p474
tp475
Rp476
sg21
V399231
p477
sg23
V{\u000a}
p478
sg25
(lp479
F0.0
aF1.0
aF0.0
aF0.0
aF0.0
aF3.0
aF2.0
aF9.0
aF4.0
aF9.0
aF9.0
aF9.0
aF4.0
aF3.0
aF17.0
aF15.0
aF2.0
aF1.0
aF1.0
aF1.0
aF0.0
aF0.0
aF73.0
aF105.0
asg27
F-73.8920689
sg28
VNB
p480
sg30
I1399538781
sg31
V399231
p481
sg33
F206.0
sba(i__main__
TrafficEntry
p482
(dp483
g3
I2925
sg4
F40.68267685
sg5
F49090.0
sg6
V2D819E7A-018C-4BE1-A0FB-AA2D5EB07FD0
p484
sg8
V VERMONT PLACE 
p485
sg10
V HIGHLAND BOULEVARD 
p486
sg12
I1399538781
sg13
I2925
sg14
V JACKIE ROBINSON PKWY 
p487
sg16
g17
(S'\x07\xdd\x02\x06\x00\x00\x00\x00\x00\x00'
p488
tp489
Rp490
sg21
V399231
p491
sg23
V{\u000a}
p492
sg25
(lp493
F0.0
aF0.0
aF0.0
aF0.0
aF0.0
aF0.0
aF0.0
aF5.0
aF2.0
aF0.0
aF1.0
aF2.0
aF0.0
aF1.0
aF0.0
aF0.0
aF0.0
aF0.0
aF5.0
aF2.0
aF2.0
aF0.0
aF120.0
aF164.0
asg27
F-73.8920689
sg28
VSB
p494
sg30
I1399538781
sg31
V399231
p495
sg33
F206.0
sba(i__main__
TrafficEntry
p496
(dp497
g3
I2952
sg4
F40.68941905
sg5
F49572.0
sg6
V3BEEEE94-630B-4AA1-95EA-C684577E1569
p498
sg8
V JAMAICA AVENUE 
p499
sg10
V AUTUMN AVENUE 
p500
sg12
I1399538781
sg13
I2952
sg14
V EUCLID AVENUE  
p501
sg16
g17
(S'\x07\xdd\x02\x05\x00\x00\x00\x00\x00\x00'
p502
tp503
Rp504
sg21
V399231
p505
sg23
V{\u000a}
p506
sg25
(lp507
F90.0
aF51.0
aF46.0
aF41.0
aF48.0
aF87.0
aF148.0
aF291.0
aF423.0
aF333.0
aF290.0
aF285.0
aF301.0
aF306.0
aF481.0
aF550.0
aF0.0
aF0.0
aF0.0
aF0.0
aF0.0
aF0.0
aF0.0
aF0.0
asg27
F-73.8737297
sg28
VEB
p508
sg30
I1399538781
sg31
V399231
p509
sg33
F208.0
sba(i__main__
TrafficEntry
p510
(dp511
g3
I4159
sg4
F41.000203850000005
sg5
F97387.0
sg6
VFDCEF9E4-5868-4725-A81A-6816BC517277
p512
sg8
VUNDERHILL AVE
p513
sg10
V53 AVE
p514
sg12
I1399538783
sg13
I4159
sg14
V58 AVE
p515
sg16
g17
(S'\x07\xdc\n\x1b\x00\x00\x00\x00\x00\x00'
p516
tp517
Rp518
sg21
V399231
p519
sg23
V{\u000a}
p520
sg25
(lp521
F4.0
aF1.0
aF4.0
aF0.0
aF1.0
aF2.0
aF4.0
aF13.0
aF22.0
aF38.0
aF30.0
aF58.0
aF35.0
aF38.0
aF40.0
aF31.0
aF39.0
aF46.0
aF23.0
aF16.0
aF16.0
aF18.0
aF18.0
aF8.0
asg27
F-73.79501895
sg28
VEB
p522
sg30
I1399538783
sg31
V399231
p523
sg33
F276.0
sba(i__main__
TrafficEntry
p524
(dp525
g3
I4148
sg4
F40.752457199999995
sg5
F97278.0
sg6
V9CDC1E12-F70E-40D2-ACD3-5587A98D03FB
p526
sg8
VHOLLIS COURT BLVD
p527
sg10
V189 STREET
p528
sg12
I1399538783
sg13
I4148
sg14
V47 AVE
p529
sg16
g17
(S'\x07\xdd\x02\x07\x00\x00\x00\x00\x00\x00'
p530
tp531
Rp532
sg21
V399231
p533
sg23
V{\u000a}
p534
sg25
(lp535
F0.0
aF0.0
aF0.0
aF0.0
aF0.0
aF0.0
aF0.0
aF0.0
aF0.0
aF1.0
aF0.0
aF1.0
aF3.0
aF72.0
aF370.0
aF432.0
aF473.0
aF483.0
aF447.0
aF355.0
aF286.0
aF228.0
aF139.0
aF101.0
asg27
F-73.7903245
sg28
VEB
p536
sg30
I1399538783
sg31
V399231
p537
sg33
F275.0
sba(i__main__
TrafficEntry
p538
(dp539
g3
I4161
sg4
F41.000203850000005
sg5
F97387.0
sg6
VDA92DE39-6511-48D5-B5CC-DD5D0FAABD09
p540
sg8
VUNDERHILL AVE
p541
sg10
V53 AVE
p542
sg12
I1399538783
sg13
I4161
sg14
V58 AVE
p543
sg16
g17
(S'\x07\xdd\x01\x1f\x00\x00\x00\x00\x00\x00'
p544
tp545
Rp546
sg21
V399231
p547
sg23
V{\u000a}
p548
sg25
(lp549
F5.0
aF1.0
aF0.0
aF0.0
aF0.0
aF5.0
aF12.0
aF20.0
aF43.0
aF18.0
aF20.0
aF20.0
aF18.0
aF22.0
aF26.0
aF33.0
aF21.0
aF27.0
aF29.0
aF17.0
aF10.0
aF13.0
aF7.0
aF2.0
asg27
F-73.79501895
sg28
VEB
p550
sg30
I1399538783
sg31
V399231
p551
sg33
F276.0
sba(i__main__
TrafficEntry
p552
(dp553
g3
I4162
sg4
F41.000203850000005
sg5
F97387.0
sg6
VDCF0171A-9038-4B6D-962E-5EA1BB3C9B65
p554
sg8
VUNDERHILL AVE
p555
sg10
V53 AVE
p556
sg12
I1399538783
sg13
I4162
sg14
V58 AVE
p557
sg16
g17
(S'\x07\xdd\x02\x01\x00\x00\x00\x00\x00\x00'
p558
tp559
Rp560
sg21
V399231
p561
sg23
V{\u000a}
p562
sg25
(lp563
F2.0
aF1.0
aF0.0
aF0.0
aF1.0
aF6.0
aF9.0
aF24.0
aF27.0
aF24.0
aF17.0
aF24.0
aF10.0
aF13.0
aF26.0
aF26.0
aF23.0
aF25.0
aF32.0
aF22.0
aF9.0
aF7.0
aF9.0
aF10.0
asg27
F-73.79501895
sg28
VEB
p564
sg30
I1399538783
sg31
V399231
p565
sg33
F276.0
sba(i__main__
TrafficEntry
p566
(dp567
g3
I4164
sg4
F41.000203850000005
sg5
F97387.0
sg6
V0F542C82-6377-402E-99EC-729C308E7045
p568
sg8
VUNDERHILL AVE
p569
sg10
V53 AVE
p570
sg12
I1399538783
sg13
I4164
sg14
V58 AVE
p571
sg16
g17
(S'\x07\xdd\x02\x03\x00\x00\x00\x00\x00\x00'
p572
tp573
Rp574
sg21
V399231
p575
sg23
V{\u000a}
p576
sg25
(lp577
F5.0
aF3.0
aF5.0
aF0.0
aF0.0
aF3.0
aF6.0
aF3.0
aF14.0
aF26.0
aF24.0
aF28.0
aF23.0
aF26.0
aF24.0
aF26.0
aF20.0
aF17.0
aF11.0
aF14.0
aF10.0
aF8.0
aF8.0
aF10.0
asg27
F-73.79501895
sg28
VEB
p578
sg30
I1399538783
sg31
V399231
p579
sg33
F276.0
sba(i__main__
TrafficEntry
p580
(dp581
g3
I4165
sg4
F41.000203850000005
sg5
F97387.0
sg6
VC1B3A65A-0715-4E05-9FA1-D119BE7DC4BC
p582
sg8
VUNDERHILL AVE
p583
sg10
V53 AVE
p584
sg12
I1399538783
sg13
I4165
sg14
V58 AVE
p585
sg16
g17
(S'\x07\xdd\x02\x04\x00\x00\x00\x00\x00\x00'
p586
tp587
Rp588
sg21
V399231
p589
sg23
V{\u000a}
p590
sg25
(lp591
F2.0
aF1.0
aF0.0
aF0.0
aF1.0
aF3.0
aF14.0
aF25.0
aF33.0
aF25.0
aF19.0
aF19.0
aF17.0
aF22.0
aF29.0
aF55.0
aF27.0
aF23.0
aF15.0
aF13.0
aF11.0
aF5.0
aF4.0
aF1.0
asg27
F-73.79501895
sg28
VEB
p592
sg30
I1399538783
sg31
V399231
p593
sg33
F276.0
sba(i__main__
TrafficEntry
p594
(dp595
g3
I4166
sg4
F41.000203850000005
sg5
F97387.0
sg6
V65305D47-566A-4FC6-BD38-D91143BF59F7
p596
sg8
VUNDERHILL AVE
p597
sg10
V53 AVE
p598
sg12
I1399538783
sg13
I4166
sg14
V58 AVE
p599
sg16
g17
(S'\x07\xdd\x02\x05\x00\x00\x00\x00\x00\x00'
p600
tp601
Rp602
sg21
V399231
p603
sg23
V{\u000a}
p604
sg25
(lp605
F3.0
aF3.0
aF0.0
aF0.0
aF1.0
aF6.0
aF11.0
aF26.0
aF42.0
aF14.0
aF15.0
aF14.0
aF15.0
aF19.0
aF20.0
aF27.0
aF30.0
aF25.0
aF29.0
aF17.0
aF3.0
aF7.0
aF5.0
aF2.0
asg27
F-73.79501895
sg28
VEB
p606
sg30
I1399538783
sg31
V399231
p607
sg33
F276.0
sba(i__main__
TrafficEntry
p608
(dp609
g3
I4167
sg4
F41.000203850000005
sg5
F97387.0
sg6
V5C8DBAFA-B206-4B4B-9C83-E60FD3864DAF
p610
sg8
VUNDERHILL AVE
p611
sg10
V53 AVE
p612
sg12
I1399538783
sg13
I4167
sg14
V58 AVE
p613
sg16
g17
(S'\x07\xdd\x02\x06\x00\x00\x00\x00\x00\x00'
p614
tp615
Rp616
sg21
V399231
p617
sg23
V{\u000a}
p618
sg25
(lp619
F6.0
aF1.0
aF0.0
aF0.0
aF2.0
aF9.0
aF9.0
aF25.0
aF31.0
aF16.0
aF18.0
aF25.0
aF19.0
aF17.0
aF33.0
aF35.0
aF26.0
aF22.0
aF17.0
aF21.0
aF10.0
aF18.0
aF7.0
aF3.0
asg27
F-73.79501895
sg28
VEB
p620
sg30
I1399538783
sg31
V399231
p621
sg33
F276.0
sba(i__main__
TrafficEntry
p622
(dp623
g3
I4168
sg4
F41.000203850000005
sg5
F97387.0
sg6
VBC207338-C154-4B6B-98D8-270B6A04BBB4
p624
sg8
VUNDERHILL AVE
p625
sg10
V53 AVE
p626
sg12
I1399538783
sg13
I4168
sg14
V58 AVE
p627
sg16
g17
(S'\x07\xdd\x02\x07\x00\x00\x00\x00\x00\x00'
p628
tp629
Rp630
sg21
V399231
p631
sg23
V{\u000a}
p632
sg25
(lp633
F3.0
aF0.0
aF1.0
aF0.0
aF1.0
aF6.0
aF13.0
aF26.0
aF35.0
aF17.0
aF18.0
aF21.0
aF16.0
aF19.0
aF23.0
aF32.0
aF34.0
aF24.0
aF27.0
aF28.0
aF9.0
aF10.0
aF5.0
aF2.0
asg27
F-73.79501895
sg28
VEB
p634
sg30
I1399538783
sg31
V399231
p635
sg33
F276.0
sba(i__main__
TrafficEntry
p636
(dp637
g3
I4172
sg4
F41.000203850000005
sg5
F97387.0
sg6
V9CFAF329-3D6B-4604-AF8F-79197E5D58C0
p638
sg8
VUNDERHILL AVE
p639
sg10
V53 AVE
p640
sg12
I1399538783
sg13
I4172
sg14
V58 AVE
p641
sg16
g17
(S'\x07\xdd\x02\x01\x00\x00\x00\x00\x00\x00'
p642
tp643
Rp644
sg21
V399231
p645
sg23
V{\u000a}
p646
sg25
(lp647
F4.0
aF1.0
aF1.0
aF1.0
aF0.0
aF3.0
aF25.0
aF80.0
aF130.0
aF49.0
aF52.0
aF50.0
aF30.0
aF46.0
aF77.0
aF75.0
aF75.0
aF119.0
aF93.0
aF100.0
aF57.0
aF34.0
aF34.0
aF31.0
asg27
F-73.79501895
sg28
VWB
p648
sg30
I1399538783
sg31
V399231
p649
sg33
F276.0
sba(i__main__
TrafficEntry
p650
(dp651
g3
I4175
sg4
F41.000203850000005
sg5
F97387.0
sg6
V5ADD40E5-8A4A-4018-B016-ABFDA450EC53
p652
sg8
VUNDERHILL AVE
p653
sg10
V53 AVE
p654
sg12
I1399538783
sg13
I4175
sg14
V58 AVE
p655
sg16
g17
(S'\x07\xdd\x02\x04\x00\x00\x00\x00\x00\x00'
p656
tp657
Rp658
sg21
V399231
p659
sg23
V{\u000a}
p660
sg25
(lp661
F8.0
aF2.0
aF2.0
aF1.0
aF0.0
aF2.0
aF29.0
aF86.0
aF128.0
aF50.0
aF31.0
aF29.0
aF41.0
aF41.0
aF61.0
aF52.0
aF61.0
aF72.0
aF83.0
aF40.0
aF32.0
aF20.0
aF21.0
aF15.0
asg27
F-73.79501895
sg28
VWB
p662
sg30
I1399538783
sg31
V399231
p663
sg33
F276.0
sba(i__main__
TrafficEntry
p664
(dp665
g3
I4176
sg4
F41.000203850000005
sg5
F97387.0
sg6
V5246D9BA-218C-47C4-9756-2FEC5FB17C26
p666
sg8
VUNDERHILL AVE
p667
sg10
V53 AVE
p668
sg12
I1399538783
sg13
I4176
sg14
V58 AVE
p669
sg16
g17
(S'\x07\xdd\x02\x05\x00\x00\x00\x00\x00\x00'
p670
tp671
Rp672
sg21
V399231
p673
sg23
V{\u000a}
p674
sg25
(lp675
F4.0
aF3.0
aF2.0
aF1.0
aF0.0
aF2.0
aF31.0
aF74.0
aF113.0
aF72.0
aF35.0
aF56.0
aF48.0
aF40.0
aF38.0
aF59.0
aF56.0
aF59.0
aF74.0
aF42.0
aF32.0
aF32.0
aF22.0
aF12.0
asg27
F-73.79501895
sg28
VWB
p676
sg30
I1399538783
sg31
V399231
p677
sg33
F276.0
sba(i__main__
TrafficEntry
p678
(dp679
g3
I4177
sg4
F41.000203850000005
sg5
F97387.0
sg6
VF219B19A-CCBF-4B42-A0A2-848AE5ACD9C2
p680
sg8
VUNDERHILL AVE
p681
sg10
V53 AVE
p682
sg12
I1399538783
sg13
I4177
sg14
V58 AVE
p683
sg16
g17
(S'\x07\xdd\x02\x06\x00\x00\x00\x00\x00\x00'
p684
tp685
Rp686
sg21
V399231
p687
sg23
V{\u000a}
p688
sg25
(lp689
F5.0
aF2.0
aF0.0
aF2.0
aF1.0
aF4.0
aF20.0
aF85.0
aF124.0
aF53.0
aF46.0
aF47.0
aF34.0
aF50.0
aF50.0
aF59.0
aF54.0
aF74.0
aF77.0
aF39.0
aF33.0
aF42.0
aF19.0
aF15.0
asg27
F-73.79501895
sg28
VWB
p690
sg30
I1399538783
sg31
V399231
p691
sg33
F276.0
sba(i__main__
TrafficEntry
p692
(dp693
g3
I4178
sg4
F41.000203850000005
sg5
F97387.0
sg6
V758C2D35-054A-4CB3-A78C-3E8AB90CCA49
p694
sg8
VUNDERHILL AVE
p695
sg10
V53 AVE
p696
sg12
I1399538783
sg13
I4178
sg14
V58 AVE
p697
sg16
g17
(S'\x07\xdd\x02\x07\x00\x00\x00\x00\x00\x00'
p698
tp699
Rp700
sg21
V399231
p701
sg23
V{\u000a}
p702
sg25
(lp703
F6.0
aF5.0
aF0.0
aF0.0
aF0.0
aF5.0
aF25.0
aF81.0
aF122.0
aF50.0
aF52.0
aF46.0
aF47.0
aF36.0
aF58.0
aF61.0
aF62.0
aF78.0
aF77.0
aF59.0
aF36.0
aF22.0
aF10.0
aF15.0
asg27
F-73.79501895
sg28
VWB
p704
sg30
I1399538783
sg31
V399231
p705
sg33
F276.0
sba(i__main__
TrafficEntry
p706
(dp707
g3
I4199
sg4
F40.74555205
sg5
F97537.0
sg6
V2234D8CC-577A-4EC7-B124-C6947CD3A9F6
p708
sg8
V56 AVE
p709
sg10
V194 STREET
p710
sg12
I1399538783
sg13
I4199
sg14
V195 STREET
p711
sg16
g17
(S'\x07\xdc\n\x1b\x00\x00\x00\x00\x00\x00'
p712
tp713
Rp714
sg21
V399231
p715
sg23
V{\u000a}
p716
sg25
(lp717
F4.0
aF1.0
aF2.0
aF0.0
aF1.0
aF4.0
aF10.0
aF11.0
aF12.0
aF28.0
aF31.0
aF29.0
aF26.0
aF37.0
aF33.0
aF21.0
aF25.0
aF29.0
aF21.0
aF14.0
aF9.0
aF4.0
aF5.0
aF11.0
asg27
F-73.78334265000001
sg28
VEB
p718
sg30
I1399538783
sg31
V399231
p719
sg33
F278.0
sba(i__main__
TrafficEntry
p720
(dp721
g3
I4201
sg4
F40.74555205
sg5
F97537.0
sg6
VC71131F5-95AC-4FC7-BCDB-678878786D75
p722
sg8
V56 AVE
p723
sg10
V194 STREET
p724
sg12
I1399538783
sg13
I4201
sg14
V195 STREET
p725
sg16
g17
(S'\x07\xdd\x01\x1f\x00\x00\x00\x00\x00\x00'
p726
tp727
Rp728
sg21
V399231
p729
sg23
V{\u000a}
p730
sg25
(lp731
F6.0
aF0.0
aF0.0
aF2.0
aF2.0
aF4.0
aF7.0
aF23.0
aF26.0
aF10.0
aF13.0
aF18.0
aF21.0
aF15.0
aF24.0
aF16.0
aF20.0
aF22.0
aF16.0
aF17.0
aF12.0
aF11.0
aF6.0
aF3.0
asg27
F-73.78334265000001
sg28
VEB
p732
sg30
I1399538783
sg31
V399231
p733
sg33
F278.0
sba(i__main__
TrafficEntry
p734
(dp735
g3
I4202
sg4
F40.74555205
sg5
F97537.0
sg6
V4A6FEBA2-C710-4958-ACCE-57D09EC3BC62
p736
sg8
V56 AVE
p737
sg10
V194 STREET
p738
sg12
I1399538783
sg13
I4202
sg14
V195 STREET
p739
sg16
g17
(S'\x07\xdd\x02\x01\x00\x00\x00\x00\x00\x00'
p740
tp741
Rp742
sg21
V399231
p743
sg23
V{\u000a}
p744
sg25
(lp745
F2.0
aF0.0
aF1.0
aF0.0
aF3.0
aF4.0
aF5.0
aF24.0
aF36.0
aF19.0
aF17.0
aF15.0
aF21.0
aF17.0
aF26.0
aF18.0
aF23.0
aF23.0
aF11.0
aF11.0
aF11.0
aF11.0
aF12.0
aF9.0
asg27
F-73.78334265000001
sg28
VEB
p746
sg30
I1399538783
sg31
V399231
p747
sg33
F278.0
sba(i__main__
TrafficEntry
p748
(dp749
g3
I4203
sg4
F40.74555205
sg5
F97537.0
sg6
V4268DFD7-7285-487D-9C09-B97F943987B4
p750
sg8
V56 AVE
p751
sg10
V194 STREET
p752
sg12
I1399538783
sg13
I4203
sg14
V195 STREET
p753
sg16
g17
(S'\x07\xdd\x02\x02\x00\x00\x00\x00\x00\x00'
p754
tp755
Rp756
sg21
V399231
p757
sg23
V{\u000a}
p758
sg25
(lp759
F3.0
aF1.0
aF1.0
aF1.0
aF0.0
aF5.0
aF3.0
aF6.0
aF13.0
aF22.0
aF22.0
aF23.0
aF16.0
aF23.0
aF25.0
aF22.0
aF26.0
aF15.0
aF21.0
aF17.0
aF27.0
aF12.0
aF7.0
aF5.0
asg27
F-73.78334265000001
sg28
VEB
p760
sg30
I1399538783
sg31
V399231
p761
sg33
F278.0
sba(i__main__
TrafficEntry
p762
(dp763
g3
I4205
sg4
F40.74555205
sg5
F97537.0
sg6
V1A10C24F-3064-411B-8FFE-7E1AB1DD7A50
p764
sg8
V56 AVE
p765
sg10
V194 STREET
p766
sg12
I1399538783
sg13
I4205
sg14
V195 STREET
p767
sg16
g17
(S'\x07\xdd\x02\x04\x00\x00\x00\x00\x00\x00'
p768
tp769
Rp770
sg21
V399231
p771
sg23
V{\u000a}
p772
sg25
(lp773
F3.0
aF0.0
aF0.0
aF0.0
aF0.0
aF4.0
aF7.0
aF20.0
aF35.0
aF22.0
aF14.0
aF16.0
aF13.0
aF9.0
aF16.0
aF16.0
aF28.0
aF15.0
aF16.0
aF9.0
aF8.0
aF11.0
aF5.0
aF7.0
asg27
F-73.78334265000001
sg28
VEB
p774
sg30
I1399538783
sg31
V399231
p775
sg33
F278.0
sba(i__main__
TrafficEntry
p776
(dp777
g3
I4206
sg4
F40.74555205
sg5
F97537.0
sg6
V5916C54A-376A-45E9-AC15-16CADA87E750
p778
sg8
V56 AVE
p779
sg10
V194 STREET
p780
sg12
I1399538783
sg13
I4206
sg14
V195 STREET
p781
sg16
g17
(S'\x07\xdd\x02\x05\x00\x00\x00\x00\x00\x00'
p782
tp783
Rp784
sg21
V399231
p785
sg23
V{\u000a}
p786
sg25
(lp787
F3.0
aF2.0
aF0.0
aF2.0
aF4.0
aF3.0
aF7.0
aF27.0
aF34.0
aF16.0
aF17.0
aF22.0
aF12.0
aF17.0
aF19.0
aF19.0
aF18.0
aF13.0
aF13.0
aF20.0
aF9.0
aF9.0
aF8.0
aF0.0
asg27
F-73.78334265000001
sg28
VEB
p788
sg30
I1399538783
sg31
V399231
p789
sg33
F278.0
sba(i__main__
TrafficEntry
p790
(dp791
g3
I4207
sg4
F40.74555205
sg5
F97537.0
sg6
VE77FE6DE-A488-4FBA-9CB8-90AC7BD231D1
p792
sg8
V56 AVE
p793
sg10
V194 STREET
p794
sg12
I1399538783
sg13
I4207
sg14
V195 STREET
p795
sg16
g17
(S'\x07\xdd\x02\x06\x00\x00\x00\x00\x00\x00'
p796
tp797
Rp798
sg21
V399231
p799
sg23
V{\u000a}
p800
sg25
(lp801
F0.0
aF2.0
aF0.0
aF2.0
aF1.0
aF4.0
aF8.0
aF21.0
aF46.0
aF10.0
aF6.0
aF22.0
aF12.0
aF13.0
aF31.0
aF15.0
aF21.0
aF19.0
aF13.0
aF13.0
aF11.0
aF12.0
aF6.0
aF2.0
asg27
F-73.78334265000001
sg28
VEB
p802
sg30
I1399538783
sg31
V399231
p803
sg33
F278.0
sba(i__main__
TrafficEntry
p804
(dp805
g3
I4208
sg4
F40.74555205
sg5
F97537.0
sg6
V6785B2BC-FF93-4A48-8124-C3550A7795AD
p806
sg8
V56 AVE
p807
sg10
V194 STREET
p808
sg12
I1399538783
sg13
I4208
sg14
V195 STREET
p809
sg16
g17
(S'\x07\xdd\x02\x07\x00\x00\x00\x00\x00\x00'
p810
tp811
Rp812
sg21
V399231
p813
sg23
V{\u000a}
p814
sg25
(lp815
F3.0
aF0.0
aF0.0
aF2.0
aF4.0
aF2.0
aF7.0
aF24.0
aF34.0
aF12.0
aF21.0
aF24.0
aF9.0
aF8.0
aF27.0
aF12.0
aF22.0
aF15.0
aF23.0
aF20.0
aF14.0
aF14.0
aF6.0
aF4.0
asg27
F-73.78334265000001
sg28
VEB
p816
sg30
I1399538783
sg31
V399231
p817
sg33
F278.0
sba(i__main__
TrafficEntry
p818
(dp819
g3
I4209
sg4
F40.74555205
sg5
F97537.0
sg6
V906563E1-B125-4DDF-9F00-BEBAD2C4EEBF
p820
sg8
V56 AVE
p821
sg10
V194 STREET
p822
sg12
I1399538783
sg13
I4209
sg14
V195 STREET
p823
sg16
g17
(S'\x07\xdc\n\x1b\x00\x00\x00\x00\x00\x00'
p824
tp825
Rp826
sg21
V399231
p827
sg23
V{\u000a}
p828
sg25
(lp829
F8.0
aF5.0
aF2.0
aF0.0
aF1.0
aF1.0
aF7.0
aF4.0
aF29.0
aF27.0
aF32.0
aF35.0
aF31.0
aF35.0
aF34.0
aF39.0
aF35.0
aF42.0
aF29.0
aF28.0
aF22.0
aF11.0
aF0.0
aF17.0
asg27
F-73.78334265000001
sg28
VWB
p830
sg30
I1399538783
sg31
V399231
p831
sg33
F278.0
sba(i__main__
TrafficEntry
p832
(dp833
g3
I4210
sg4
F40.74555205
sg5
F97537.0
sg6
V1058226B-6D25-429D-A49C-06E5D88ECE04
p834
sg8
V56 AVE
p835
sg10
V194 STREET
p836
sg12
I1399538783
sg13
I4210
sg14
V195 STREET
p837
sg16
g17
(S'\x07\xdc\n\x1c\x00\x00\x00\x00\x00\x00'
p838
tp839
Rp840
sg21
V399231
p841
sg23
V{\u000a}
p842
sg25
(lp843
F4.0
aF4.0
aF0.0
aF0.0
aF0.0
aF3.0
aF3.0
aF8.0
aF14.0
aF26.0
aF30.0
aF35.0
aF35.0
aF46.0
aF38.0
aF35.0
aF30.0
aF21.0
aF22.0
aF13.0
aF5.0
aF11.0
aF5.0
aF6.0
asg27
F-73.78334265000001
sg28
VWB
p844
sg30
I1399538783
sg31
V399231
p845
sg33
F278.0
sba(i__main__
TrafficEntry
p846
(dp847
g3
I4211
sg4
F40.74555205
sg5
F97537.0
sg6
V3E6E4CDF-59A7-4100-A382-89354D881EE0
p848
sg8
V56 AVE
p849
sg10
V194 STREET
p850
sg12
I1399538783
sg13
I4211
sg14
V195 STREET
p851
sg16
g17
(S'\x07\xdd\x01\x1f\x00\x00\x00\x00\x00\x00'
p852
tp853
Rp854
sg21
V399231
p855
sg23
V{\u000a}
p856
sg25
(lp857
F1.0
aF2.0
aF0.0
aF0.0
aF1.0
aF2.0
aF5.0
aF22.0
aF41.0
aF20.0
aF18.0
aF20.0
aF15.0
aF21.0
aF15.0
aF31.0
aF12.0
aF24.0
aF10.0
aF14.0
aF10.0
aF13.0
aF9.0
aF3.0
asg27
F-73.78334265000001
sg28
VWB
p858
sg30
I1399538783
sg31
V399231
p859
sg33
F278.0
sba(i__main__
TrafficEntry
p860
(dp861
g3
I4212
sg4
F40.74555205
sg5
F97537.0
sg6
VB3393CD2-2790-4069-BEB8-B3A7E5ABE772
p862
sg8
V56 AVE
p863
sg10
V194 STREET
p864
sg12
I1399538783
sg13
I4212
sg14
V195 STREET
p865
sg16
g17
(S'\x07\xdd\x02\x01\x00\x00\x00\x00\x00\x00'
p866
tp867
Rp868
sg21
V399231
p869
sg23
V{\u000a}
p870
sg25
(lp871
F2.0
aF2.0
aF3.0
aF0.0
aF3.0
aF1.0
aF7.0
aF26.0
aF44.0
aF20.0
aF15.0
aF19.0
aF16.0
aF17.0
aF20.0
aF49.0
aF21.0
aF16.0
aF17.0
aF19.0
aF16.0
aF11.0
aF2.0
aF6.0
asg27
F-73.78334265000001
sg28
VWB
p872
sg30
I1399538783
sg31
V399231
p873
sg33
F278.0
sba(i__main__
TrafficEntry
p874
(dp875
g3
I4213
sg4
F40.74555205
sg5
F97537.0
sg6
V15C1DD24-9218-48B4-BEAA-09841E4DA487
p876
sg8
V56 AVE
p877
sg10
V194 STREET
p878
sg12
I1399538783
sg13
I4213
sg14
V195 STREET
p879
sg16
g17
(S'\x07\xdd\x02\x02\x00\x00\x00\x00\x00\x00'
p880
tp881
Rp882
sg21
V399231
p883
sg23
V{\u000a}
p884
sg25
(lp885
F8.0
aF0.0
aF3.0
aF2.0
aF2.0
aF4.0
aF2.0
aF5.0
aF8.0
aF20.0
aF39.0
aF30.0
aF31.0
aF30.0
aF27.0
aF23.0
aF26.0
aF22.0
aF14.0
aF17.0
aF9.0
aF15.0
aF6.0
aF2.0
asg27
F-73.78334265000001
sg28
VWB
p886
sg30
I1399538783
sg31
V399231
p887
sg33
F278.0
sba(i__main__
TrafficEntry
p888
(dp889
g3
I4215
sg4
F40.74555205
sg5
F97537.0
sg6
VEAE1FD25-619A-42F3-BE11-2B6D85943D58
p890
sg8
V56 AVE
p891
sg10
V194 STREET
p892
sg12
I1399538783
sg13
I4215
sg14
V195 STREET
p893
sg16
g17
(S'\x07\xdd\x02\x04\x00\x00\x00\x00\x00\x00'
p894
tp895
Rp896
sg21
V399231
p897
sg23
V{\u000a}
p898
sg25
(lp899
F1.0
aF0.0
aF0.0
aF0.0
aF1.0
aF2.0
aF6.0
aF14.0
aF52.0
aF32.0
aF20.0
aF24.0
aF15.0
aF24.0
aF22.0
aF39.0
aF27.0
aF20.0
aF11.0
aF12.0
aF13.0
aF14.0
aF6.0
aF3.0
asg27
F-73.78334265000001
sg28
VWB
p900
sg30
I1399538783
sg31
V399231
p901
sg33
F278.0
sba(i__main__
TrafficEntry
p902
(dp903
g3
I4216
sg4
F40.74555205
sg5
F97537.0
sg6
VCF64C296-5D8A-4F85-9215-4809D98345FB
p904
sg8
V56 AVE
p905
sg10
V194 STREET
p906
sg12
I1399538783
sg13
I4216
sg14
V195 STREET
p907
sg16
g17
(S'\x07\xdd\x02\x05\x00\x00\x00\x00\x00\x00'
p908
tp909
Rp910
sg21
V399231
p911
sg23
V{\u000a}
p912
sg25
(lp913
F0.0
aF0.0
aF0.0
aF0.0
aF1.0
aF2.0
aF5.0
aF26.0
aF61.0
aF23.0
aF19.0
aF27.0
aF20.0
aF18.0
aF14.0
aF37.0
aF22.0
aF20.0
aF19.0
aF14.0
aF11.0
aF9.0
aF4.0
aF3.0
asg27
F-73.78334265000001
sg28
VWB
p914
sg30
I1399538783
sg31
V399231
p915
sg33
F278.0
sba(i__main__
TrafficEntry
p916
(dp917
g3
I4217
sg4
F40.74555205
sg5
F97537.0
sg6
V47ED2A4F-D3A1-416C-AAFA-24F88AE9819A
p918
sg8
V56 AVE
p919
sg10
V194 STREET
p920
sg12
I1399538783
sg13
I4217
sg14
V195 STREET
p921
sg16
g17
(S'\x07\xdd\x02\x06\x00\x00\x00\x00\x00\x00'
p922
tp923
Rp924
sg21
V399231
p925
sg23
V{\u000a}
p926
sg25
(lp927
F0.0
aF0.0
aF0.0
aF0.0
aF1.0
aF1.0
aF9.0
aF12.0
aF54.0
aF12.0
aF21.0
aF24.0
aF18.0
aF24.0
aF26.0
aF40.0
aF13.0
aF14.0
aF11.0
aF14.0
aF12.0
aF9.0
aF5.0
aF3.0
asg27
F-73.78334265000001
sg28
VWB
p928
sg30
I1399538783
sg31
V399231
p929
sg33
F278.0
sba(i__main__
TrafficEntry
p930
(dp931
g3
I4218
sg4
F40.74555205
sg5
F97537.0
sg6
VC2C2CB2D-5C6D-4EBD-88F7-F9A9F552E6BB
p932
sg8
V56 AVE
p933
sg10
V194 STREET
p934
sg12
I1399538783
sg13
I4218
sg14
V195 STREET
p935
sg16
g17
(S'\x07\xdd\x02\x07\x00\x00\x00\x00\x00\x00'
p936
tp937
Rp938
sg21
V399231
p939
sg23
V{\u000a}
p940
sg25
(lp941
F0.0
aF0.0
aF0.0
aF0.0
aF0.0
aF1.0
aF4.0
aF26.0
aF50.0
aF12.0
aF20.0
aF20.0
aF12.0
aF14.0
aF15.0
aF34.0
aF18.0
aF27.0
aF22.0
aF23.0
aF11.0
aF9.0
aF4.0
aF5.0
asg27
F-73.78334265000001
sg28
VWB
p942
sg30
I1399538783
sg31
V399231
p943
sg33
F278.0
sba(i__main__
TrafficEntry
p944
(dp945
g3
I4239
sg4
F40.76085719999999
sg5
F101614.0
sg6
V6E428915-0AFC-4FA7-947E-946D8333D50C
p946
sg8
VMARYLAND RD
p947
sg10
VDOUGLASTON PKWY
p948
sg12
I1399538783
sg13
I4239
sg14
VHANFORD ST
p949
sg16
g17
(S'\x07\xdc\n\x1b\x00\x00\x00\x00\x00\x00'
p950
tp951
Rp952
sg21
V399231
p953
sg23
V{\u000a}
p954
sg25
(lp955
F4.0
aF1.0
aF3.0
aF0.0
aF1.0
aF2.0
aF2.0
aF4.0
aF5.0
aF5.0
aF5.0
aF8.0
aF5.0
aF5.0
aF6.0
aF4.0
aF6.0
aF6.0
aF4.0
aF3.0
aF4.0
aF4.0
aF4.0
aF3.0
asg27
F-73.74321379999999
sg28
VEB
p956
sg30
I1399538783
sg31
V399231
p957
sg33
F280.0
sba(i__main__
TrafficEntry
p958
(dp959
g3
I4241
sg4
F40.76085719999999
sg5
F101614.0
sg6
VDB20B62F-0D01-4B0E-86ED-198009214B09
p960
sg8
VMARYLAND RD
p961
sg10
VDOUGLASTON PKWY
p962
sg12
I1399538783
sg13
I4241
sg14
VHANFORD ST
p963
sg16
g17
(S'\x07\xdd\x02\x02\x00\x00\x00\x00\x00\x00'
p964
tp965
Rp966
sg21
V399231
p967
sg23
V{\u000a}
p968
sg25
(lp969
F0.0
aF0.0
aF0.0
aF0.0
aF0.0
aF0.0
aF0.0
aF0.0
aF0.0
aF0.0
aF2.0
aF4.0
aF4.0
aF5.0
aF6.0
aF7.0
aF2.0
aF1.0
aF1.0
aF1.0
aF0.0
aF0.0
aF1.0
aF0.0
asg27
F-73.74321379999999
sg28
VEB
p970
sg30
I1399538783
sg31
V399231
p971
sg33
F280.0
sba(i__main__
TrafficEntry
p972
(dp973
g3
I4242
sg4
F40.76085719999999
sg5
F101614.0
sg6
V9876F43A-7126-4480-8083-4C7DA0A57DC4
p974
sg8
VMARYLAND RD
p975
sg10
VDOUGLASTON PKWY
p976
sg12
I1399538783
sg13
I4242
sg14
VHANFORD ST
p977
sg16
g17
(S'\x07\xdd\x02\x03\x00\x00\x00\x00\x00\x00'
p978
tp979
Rp980
sg21
V399231
p981
sg23
V{\u000a}
p982
sg25
(lp983
F0.0
aF0.0
aF0.0
aF0.0
aF0.0
aF3.0
aF1.0
aF0.0
aF0.0
aF4.0
aF1.0
aF0.0
aF3.0
aF9.0
aF1.0
aF6.0
aF2.0
aF2.0
aF1.0
aF2.0
aF2.0
aF1.0
aF0.0
aF2.0
asg27
F-73.74321379999999
sg28
VEB
p984
sg30
I1399538783
sg31
V399231
p985
sg33
F280.0
sba(i__main__
TrafficEntry
p986
(dp987
g3
I4243
sg4
F40.76085719999999
sg5
F101614.0
sg6
V64BE5614-8A8B-40EB-865E-5016CF106C73
p988
sg8
VMARYLAND RD
p989
sg10
VDOUGLASTON PKWY
p990
sg12
I1399538783
sg13
I4243
sg14
VHANFORD ST
p991
sg16
g17
(S'\x07\xdd\x02\x04\x00\x00\x00\x00\x00\x00'
p992
tp993
Rp994
sg21
V399231
p995
sg23
V{\u000a}
p996
sg25
(lp997
F2.0
aF0.0
aF0.0
aF0.0
aF0.0
aF0.0
aF0.0
aF2.0
aF0.0
aF0.0
aF6.0
aF3.0
aF5.0
aF8.0
aF5.0
aF5.0
aF2.0
aF4.0
aF3.0
aF1.0
aF0.0
aF1.0
aF3.0
aF2.0
asg27
F-73.74321379999999
sg28
VEB
p998
sg30
I1399538783
sg31
V399231
p999
sg33
F280.0
sba(i__main__
TrafficEntry
p1000
(dp1001
g3
I4244
sg4
F40.76085719999999
sg5
F101614.0
sg6
V317CB66C-620F-4652-A2D4-4657AB8E6BC6
p1002
sg8
VMARYLAND RD
p1003
sg10
VDOUGLASTON PKWY
p1004
sg12
I1399538783
sg13
I4244
sg14
VHANFORD ST
p1005
sg16
g17
(S'\x07\xdd\x02\x05\x00\x00\x00\x00\x00\x00'
p1006
tp1007
Rp1008
sg21
V399231
p1009
sg23
V{\u000a}
p1010
sg25
(lp1011
F1.0
aF0.0
aF0.0
aF0.0
aF3.0
aF0.0
aF1.0
aF2.0
aF3.0
aF5.0
aF5.0
aF1.0
aF4.0
aF7.0
aF6.0
aF0.0
aF1.0
aF9.0
aF2.0
aF6.0
aF1.0
aF1.0
aF1.0
aF0.0
asg27
F-73.74321379999999
sg28
VEB
p1012
sg30
I1399538783
sg31
V399231
p1013
sg33
F280.0
sba(i__main__
TrafficEntry
p1014
(dp1015
g3
I4245
sg4
F40.76085719999999
sg5
F101614.0
sg6
V78FA527E-8E3D-41F4-A34A-1B26CF02EE34
p1016
sg8
VMARYLAND RD
p1017
sg10
VDOUGLASTON PKWY
p1018
sg12
I1399538783
sg13
I4245
sg14
VHANFORD ST
p1019
sg16
g17
(S'\x07\xdd\x02\x06\x00\x00\x00\x00\x00\x00'
p1020
tp1021
Rp1022
sg21
V399231
p1023
sg23
V{\u000a}
p1024
sg25
(lp1025
F0.0
aF0.0
aF0.0
aF0.0
aF1.0
aF1.0
aF2.0
aF0.0
aF4.0
aF5.0
aF1.0
aF4.0
aF4.0
aF4.0
aF4.0
aF2.0
aF3.0
aF3.0
aF6.0
aF2.0
aF2.0
aF1.0
aF0.0
aF0.0
asg27
F-73.74321379999999
sg28
VEB
p1026
sg30
I1399538783
sg31
V399231
p1027
sg33
F280.0
sba(i__main__
TrafficEntry
p1028
(dp1029
g3
I4246
sg4
F40.76085719999999
sg5
F101614.0
sg6
V2CFF91D2-90B0-4A29-B701-7CE8F03FA07D
p1030
sg8
VMARYLAND RD
p1031
sg10
VDOUGLASTON PKWY
p1032
sg12
I1399538783
sg13
I4246
sg14
VHANFORD ST
p1033
sg16
g17
(S'\x07\xdd\x02\x07\x00\x00\x00\x00\x00\x00'
p1034
tp1035
Rp1036
sg21
V399231
p1037
sg23
V{\u000a}
p1038
sg25
(lp1039
F0.0
aF1.0
aF0.0
aF0.0
aF1.0
aF0.0
aF2.0
aF2.0
aF0.0
aF1.0
aF5.0
aF4.0
aF9.0
aF3.0
aF7.0
aF2.0
aF3.0
aF3.0
aF5.0
aF5.0
aF2.0
aF1.0
aF2.0
aF1.0
asg27
F-73.74321379999999
sg28
VEB
p1040
sg30
I1399538783
sg31
V399231
p1041
sg33
F280.0
sba(i__main__
TrafficEntry
p1042
(dp1043
g3
I4247
sg4
F40.76085719999999
sg5
F101614.0
sg6
V2AC80AF9-79DF-4C9F-BC85-1F966925FE95
p1044
sg8
VMARYLAND RD
p1045
sg10
VDOUGLASTON PKWY
p1046
sg12
I1399538783
sg13
I4247
sg14
VHANFORD ST
p1047
sg16
g17
(S'\x07\xdc\n\x1b\x00\x00\x00\x00\x00\x00'
p1048
tp1049
Rp1050
sg21
V399231
p1051
sg23
V{\u000a}
p1052
sg25
(lp1053
F0.0
aF1.0
aF0.0
aF0.0
aF1.0
aF2.0
aF3.0
aF1.0
aF5.0
aF7.0
aF2.0
aF10.0
aF5.0
aF10.0
aF11.0
aF7.0
aF10.0
aF4.0
aF3.0
aF6.0
aF7.0
aF4.0
aF4.0
aF1.0
asg27
F-73.74321379999999
sg28
VWB
p1054
sg30
I1399538783
sg31
V399231
p1055
sg33
F280.0
sba(i__main__
TrafficEntry
p1056
(dp1057
g3
I4248
sg4
F40.76085719999999
sg5
F101614.0
sg6
VBE054A7E-8BB7-460E-9016-56D80A2DCA6D
p1058
sg8
VMARYLAND RD
p1059
sg10
VDOUGLASTON PKWY
p1060
sg12
I1399538783
sg13
I4248
sg14
VHANFORD ST
p1061
sg16
g17
(S'\x07\xdc\n\x1c\x00\x00\x00\x00\x00\x00'
p1062
tp1063
Rp1064
sg21
V399231
p1065
sg23
V{\u000a}
p1066
sg25
(lp1067
F1.0
aF2.0
aF2.0
aF0.0
aF0.0
aF1.0
aF1.0
aF2.0
aF3.0
aF3.0
aF4.0
aF4.0
aF9.0
aF6.0
aF5.0
aF5.0
aF10.0
aF5.0
aF8.0
aF4.0
aF0.0
aF4.0
aF3.0
aF0.0
asg27
F-73.74321379999999
sg28
VWB
p1068
sg30
I1399538783
sg31
V399231
p1069
sg33
F280.0
sba(i__main__
TrafficEntry
p1070
(dp1071
g3
I4249
sg4
F40.76085719999999
sg5
F101614.0
sg6
V2DAA4C6E-7051-4C8B-8074-BB5D7B5973CB
p1072
sg8
VMARYLAND RD
p1073
sg10
VDOUGLASTON PKWY
p1074
sg12
I1399538783
sg13
I4249
sg14
VHANFORD ST
p1075
sg16
g17
(S'\x07\xdd\x02\x02\x00\x00\x00\x00\x00\x00'
p1076
tp1077
Rp1078
sg21
V399231
p1079
sg23
V{\u000a}
p1080
sg25
(lp1081
F1.0
aF0.0
aF0.0
aF0.0
aF0.0
aF0.0
aF3.0
aF1.0
aF2.0
aF10.0
aF13.0
aF12.0
aF10.0
aF11.0
aF14.0
aF13.0
aF12.0
aF3.0
aF13.0
aF6.0
aF7.0
aF1.0
aF1.0
aF0.0
asg27
F-73.74321379999999
sg28
VWB
p1082
sg30
I1399538783
sg31
V399231
p1083
sg33
F280.0
sba(i__main__
TrafficEntry
p1084
(dp1085
g3
I4250
sg4
F40.76085719999999
sg5
F101614.0
sg6
VA46232C1-7638-4BF4-84ED-D5FC4966EEAA
p1086
sg8
VMARYLAND RD
p1087
sg10
VDOUGLASTON PKWY
p1088
sg12
I1399538783
sg13
I4250
sg14
VHANFORD ST
p1089
sg16
g17
(S'\x07\xdd\x02\x03\x00\x00\x00\x00\x00\x00'
p1090
tp1091
Rp1092
sg21
V399231
p1093
sg23
V{\u000a}
p1094
sg25
(lp1095
F3.0
aF0.0
aF0.0
aF0.0
aF0.0
aF5.0
aF4.0
aF2.0
aF4.0
aF8.0
aF4.0
aF5.0
aF11.0
aF17.0
aF7.0
aF9.0
aF11.0
aF6.0
aF6.0
aF8.0
aF5.0
aF3.0
aF1.0
aF3.0
asg27
F-73.74321379999999
sg28
VWB
p1096
sg30
I1399538783
sg31
V399231
p1097
sg33
F280.0
sba(i__main__
TrafficEntry
p1098
(dp1099
g3
I4251
sg4
F40.76085719999999
sg5
F101614.0
sg6
V1DD181FA-B9D9-45D0-864C-6AF088F9FCB9
p1100
sg8
VMARYLAND RD
p1101
sg10
VDOUGLASTON PKWY
p1102
sg12
I1399538783
sg13
I4251
sg14
VHANFORD ST
p1103
sg16
g17
(S'\x07\xdd\x02\x04\x00\x00\x00\x00\x00\x00'
p1104
tp1105
Rp1106
sg21
V399231
p1107
sg23
V{\u000a}
p1108
sg25
(lp1109
F1.0
aF0.0
aF1.0
aF0.0
aF1.0
aF0.0
aF0.0
aF11.0
aF3.0
aF8.0
aF8.0
aF8.0
aF10.0
aF19.0
aF8.0
aF15.0
aF9.0
aF18.0
aF7.0
aF10.0
aF2.0
aF1.0
aF4.0
aF2.0
asg27
F-73.74321379999999
sg28
VWB
p1110
sg30
I1399538783
sg31
V399231
p1111
sg33
F280.0
sba(i__main__
TrafficEntry
p1112
(dp1113
g3
I4252
sg4
F40.76085719999999
sg5
F101614.0
sg6
V4CCFDA11-4CB2-4B17-8C23-60D157E1815A
p1114
sg8
VMARYLAND RD
p1115
sg10
VDOUGLASTON PKWY
p1116
sg12
I1399538783
sg13
I4252
sg14
VHANFORD ST
p1117
sg16
g17
(S'\x07\xdd\x02\x05\x00\x00\x00\x00\x00\x00'
p1118
tp1119
Rp1120
sg21
V399231
p1121
sg23
V{\u000a}
p1122
sg25
(lp1123
F1.0
aF0.0
aF0.0
aF0.0
aF3.0
aF0.0
aF2.0
aF11.0
aF12.0
aF9.0
aF11.0
aF7.0
aF9.0
aF15.0
aF9.0
aF4.0
aF3.0
aF19.0
aF8.0
aF13.0
aF3.0
aF5.0
aF3.0
aF2.0
asg27
F-73.74321379999999
sg28
VWB
p1124
sg30
I1399538783
sg31
V399231
p1125
sg33
F280.0
sba(i__main__
TrafficEntry
p1126
(dp1127
g3
I4253
sg4
F40.76085719999999
sg5
F101614.0
sg6
V80D7C584-C237-4868-A737-4775F50475E2
p1128
sg8
VMARYLAND RD
p1129
sg10
VDOUGLASTON PKWY
p1130
sg12
I1399538783
sg13
I4253
sg14
VHANFORD ST
p1131
sg16
g17
(S'\x07\xdd\x02\x06\x00\x00\x00\x00\x00\x00'
p1132
tp1133
Rp1134
sg21
V399231
p1135
sg23
V{\u000a}
p1136
sg25
(lp1137
F1.0
aF0.0
aF0.0
aF0.0
aF1.0
aF3.0
aF5.0
aF11.0
aF8.0
aF15.0
aF3.0
aF7.0
aF10.0
aF9.0
aF11.0
aF5.0
aF8.0
aF11.0
aF11.0
aF8.0
aF5.0
aF3.0
aF3.0
aF1.0
asg27
F-73.74321379999999
sg28
VWB
p1138
sg30
I1399538783
sg31
V399231
p1139
sg33
F280.0
sba(i__main__
TrafficEntry
p1140
(dp1141
g3
I4254
sg4
F40.76085719999999
sg5
F101614.0
sg6
VB62F4B58-835A-4074-93B9-DD8F50A82400
p1142
sg8
VMARYLAND RD
p1143
sg10
VDOUGLASTON PKWY
p1144
sg12
I1399538783
sg13
I4254
sg14
VHANFORD ST
p1145
sg16
g17
(S'\x07\xdd\x02\x07\x00\x00\x00\x00\x00\x00'
p1146
tp1147
Rp1148
sg21
V399231
p1149
sg23
V{\u000a}
p1150
sg25
(lp1151
F0.0
aF1.0
aF0.0
aF0.0
aF1.0
aF0.0
aF3.0
aF13.0
aF11.0
aF11.0
aF10.0
aF9.0
aF15.0
aF9.0
aF16.0
aF7.0
aF7.0
aF10.0
aF13.0
aF10.0
aF2.0
aF5.0
aF1.0
aF4.0
asg27
F-73.74321379999999
sg28
VWB
p1152
sg30
I1399538783
sg31
V399231
p1153
sg33
F280.0
sba(i__main__
TrafficEntry
p1154
(dp1155
g3
I4263
sg4
F40.7648868
sg5
F101855.0
sg6
VDAD47EE8-E090-47FA-813F-60329CC486C8
p1156
sg8
VMARATHON PKWY
p1157
sg10
VDEEPDALE AVE
p1158
sg12
I1399538783
sg13
I4263
sg14
VRUSHMORE AVE
p1159
sg16
g17
(S'\x07\xdd\x02\x06\x00\x00\x00\x00\x00\x00'
p1160
tp1161
Rp1162
sg21
V399231
p1163
sg23
V{\u000a}
p1164
sg25
(lp1165
F14.0
aF12.0
aF0.0
aF4.0
aF19.0
aF30.0
aF125.0
aF309.0
aF263.0
aF176.0
aF136.0
aF157.0
aF138.0
aF183.0
aF180.0
aF240.0
aF192.0
aF233.0
aF196.0
aF133.0
aF108.0
aF77.0
aF61.0
aF24.0
asg27
F-73.7354615
sg28
VNB
p1166
sg30
I1399538783
sg31
V399231
p1167
sg33
F281.0
sba(i__main__
TrafficEntry
p1168
(dp1169
g3
I4644
sg4
F40.69865
sg5
F129486.0
sg6
VBFCDD9FD-B948-4A11-A9F3-859D7E467CCE
p1170
sg8
V115 ROAD
p1171
sg10
V205 STREET
p1172
sg12
I1399538783
sg13
I4644
sg14
VFRANCIS LEWIS BLVD
p1173
sg16
g17
(S'\x07\xdc\n\x1b\x00\x00\x00\x00\x00\x00'
p1174
tp1175
Rp1176
sg21
V399231
p1177
sg23
V{\u000a}
p1178
sg25
(lp1179
F0.0
aF0.0
aF0.0
aF0.0
aF0.0
aF1.0
aF0.0
aF2.0
aF5.0
aF5.0
aF3.0
aF3.0
aF2.0
aF6.0
aF7.0
aF9.0
aF12.0
aF2.0
aF2.0
aF2.0
aF2.0
aF5.0
aF12.0
aF5.0
asg27
F-73.7481729
sg28
VEB
p1180
sg30
I1399538783
sg31
V399231
p1181
sg33
F306.0
sba(i__main__
TrafficEntry
p1182
(dp1183
g3
I4645
sg4
F40.69865
sg5
F129486.0
sg6
V359A72F0-DE0E-44DF-96FA-8E9F7F65CFC8
p1184
sg8
V115 ROAD
p1185
sg10
V205 STREET
p1186
sg12
I1399538783
sg13
I4645
sg14
VFRANCIS LEWIS BLVD
p1187
sg16
g17
(S'\x07\xdc\n\x1c\x00\x00\x00\x00\x00\x00'
p1188
tp1189
Rp1190
sg21
V399231
p1191
sg23
V{\u000a}
p1192
sg25
(lp1193
F2.0
aF1.0
aF2.0
aF1.0
aF1.0
aF0.0
aF0.0
aF1.0
aF4.0
aF5.0
aF1.0
aF4.0
aF5.0
aF5.0
aF2.0
aF7.0
aF3.0
aF4.0
aF4.0
aF4.0
aF3.0
aF3.0
aF1.0
aF2.0
asg27
F-73.7481729
sg28
VEB
p1194
sg30
I1399538783
sg31
V399231
p1195
sg33
F306.0
sba(i__main__
TrafficEntry
p1196
(dp1197
g3
I4646
sg4
F40.69865
sg5
F129486.0
sg6
V2EB1CF34-29A9-4D6C-ABAA-9D425B1D1446
p1198
sg8
V115 ROAD
p1199
sg10
V205 STREET
p1200
sg12
I1399538783
sg13
I4646
sg14
VFRANCIS LEWIS BLVD
p1201
sg16
g17
(S'\x07\xdd\x01\x03\x00\x00\x00\x00\x00\x00'
p1202
tp1203
Rp1204
sg21
V399231
p1205
sg23
V{\u000a}
p1206
sg25
(lp1207
F2.0
aF1.0
aF0.0
aF0.0
aF2.0
aF4.0
aF3.0
aF11.0
aF12.0
aF8.0
aF3.0
aF8.0
aF1.0
aF5.0
aF1.0
aF5.0
aF7.0
aF13.0
aF9.0
aF7.0
aF9.0
aF10.0
aF7.0
aF2.0
asg27
F-73.7481729
sg28
VEB
p1208
sg30
I1399538783
sg31
V399231
p1209
sg33
F306.0
sba(i__main__
TrafficEntry
p1210
(dp1211
g3
I4647
sg4
F40.69865
sg5
F129486.0
sg6
VA4F70140-CE5C-4B89-9101-650CC3A14017
p1212
sg8
V115 ROAD
p1213
sg10
V205 STREET
p1214
sg12
I1399538783
sg13
I4647
sg14
VFRANCIS LEWIS BLVD
p1215
sg16
g17
(S'\x07\xdd\x01\x1f\x00\x00\x00\x00\x00\x00'
p1216
tp1217
Rp1218
sg21
V399231
p1219
sg23
V{\u000a}
p1220
sg25
(lp1221
F7.0
aF2.0
aF3.0
aF0.0
aF1.0
aF7.0
aF4.0
aF9.0
aF12.0
aF6.0
aF2.0
aF4.0
aF7.0
aF7.0
aF11.0
aF5.0
aF6.0
aF12.0
aF8.0
aF8.0
aF8.0
aF5.0
aF5.0
aF2.0
asg27
F-73.7481729
sg28
VEB
p1222
sg30
I1399538783
sg31
V399231
p1223
sg33
F306.0
sba(i__main__
TrafficEntry
p1224
(dp1225
g3
I4648
sg4
F40.69865
sg5
F129486.0
sg6
V87C4058C-2873-48D6-8713-38230547AA56
p1226
sg8
V115 ROAD
p1227
sg10
V205 STREET
p1228
sg12
I1399538783
sg13
I4648
sg14
VFRANCIS LEWIS BLVD
p1229
sg16
g17
(S'\x07\xdd\x02\x01\x00\x00\x00\x00\x00\x00'
p1230
tp1231
Rp1232
sg21
V399231
p1233
sg23
V{\u000a}
p1234
sg25
(lp1235
F0.0
aF0.0
aF1.0
aF0.0
aF1.0
aF4.0
aF5.0
aF7.0
aF7.0
aF1.0
aF3.0
aF5.0
aF6.0
aF4.0
aF9.0
aF5.0
aF7.0
aF13.0
aF11.0
aF6.0
aF12.0
aF4.0
aF5.0
aF0.0
asg27
F-73.7481729
sg28
VEB
p1236
sg30
I1399538783
sg31
V399231
p1237
sg33
F306.0
sba(i__main__
TrafficEntry
p1238
(dp1239
g3
I4649
sg4
F40.69865
sg5
F129486.0
sg6
V442C8F1C-95B8-4574-BF68-C3361C38C9D1
p1240
sg8
V115 ROAD
p1241
sg10
V205 STREET
p1242
sg12
I1399538783
sg13
I4649
sg14
VFRANCIS LEWIS BLVD
p1243
sg16
g17
(S'\x07\xdd\x02\x02\x00\x00\x00\x00\x00\x00'
p1244
tp1245
Rp1246
sg21
V399231
p1247
sg23
V{\u000a}
p1248
sg25
(lp1249
F1.0
aF3.0
aF6.0
aF0.0
aF1.0
aF1.0
aF1.0
aF1.0
aF4.0
aF2.0
aF3.0
aF3.0
aF7.0
aF10.0
aF5.0
aF6.0
aF5.0
aF8.0
aF9.0
aF3.0
aF8.0
aF5.0
aF3.0
aF4.0
asg27
F-73.7481729
sg28
VEB
p1250
sg30
I1399538783
sg31
V399231
p1251
sg33
F306.0
sba(i__main__
TrafficEntry
p1252
(dp1253
g3
I4650
sg4
F40.69865
sg5
F129486.0
sg6
VE8B4AB82-442D-48CB-8B36-AF0083E810D2
p1254
sg8
V115 ROAD
p1255
sg10
V205 STREET
p1256
sg12
I1399538783
sg13
I4650
sg14
VFRANCIS LEWIS BLVD
p1257
sg16
g17
(S'\x07\xdd\x02\x03\x00\x00\x00\x00\x00\x00'
p1258
tp1259
Rp1260
sg21
V399231
p1261
sg23
V{\u000a}
p1262
sg25
(lp1263
F2.0
aF2.0
aF4.0
aF0.0
aF2.0
aF0.0
aF0.0
aF1.0
aF6.0
aF5.0
aF4.0
aF7.0
aF6.0
aF6.0
aF7.0
aF8.0
aF3.0
aF4.0
aF11.0
aF2.0
aF0.0
aF1.0
aF1.0
aF1.0
asg27
F-73.7481729
sg28
VEB
p1264
sg30
I1399538783
sg31
V399231
p1265
sg33
F306.0
sba(i__main__
TrafficEntry
p1266
(dp1267
g3
I4651
sg4
F40.69865
sg5
F129486.0
sg6
VB343AF63-3F6D-4B07-8AB9-EAE98B8B1AEA
p1268
sg8
V115 ROAD
p1269
sg10
V205 STREET
p1270
sg12
I1399538783
sg13
I4651
sg14
VFRANCIS LEWIS BLVD
p1271
sg16
g17
(S'\x07\xdd\x02\x04\x00\x00\x00\x00\x00\x00'
p1272
tp1273
Rp1274
sg21
V399231
p1275
sg23
V{\u000a}
p1276
sg25
(lp1277
F2.0
aF0.0
aF0.0
aF0.0
aF0.0
aF2.0
aF4.0
aF5.0
aF9.0
aF3.0
aF4.0
aF4.0
aF1.0
aF2.0
aF5.0
aF3.0
aF9.0
aF5.0
aF2.0
aF6.0
aF7.0
aF4.0
aF9.0
aF2.0
asg27
F-73.7481729
sg28
VEB
p1278
sg30
I1399538783
sg31
V399231
p1279
sg33
F306.0
sba(i__main__
TrafficEntry
p1280
(dp1281
g3
I4652
sg4
F40.69865
sg5
F129486.0
sg6
V7DB3947C-687B-4B0E-BA7D-D20706EC66CB
p1282
sg8
V115 ROAD
p1283
sg10
V205 STREET
p1284
sg12
I1399538783
sg13
I4652
sg14
VFRANCIS LEWIS BLVD
p1285
sg16
g17
(S'\x07\xdd\x02\x05\x00\x00\x00\x00\x00\x00'
p1286
tp1287
Rp1288
sg21
V399231
p1289
sg23
V{\u000a}
p1290
sg25
(lp1291
F3.0
aF1.0
aF0.0
aF0.0
aF1.0
aF2.0
aF2.0
aF6.0
aF8.0
aF2.0
aF4.0
aF5.0
aF5.0
aF7.0
aF7.0
aF7.0
aF2.0
aF10.0
aF5.0
aF4.0
aF7.0
aF8.0
aF3.0
aF1.0
asg27
F-73.7481729
sg28
VEB
p1292
sg30
I1399538783
sg31
V399231
p1293
sg33
F306.0
sba(i__main__
TrafficEntry
p1294
(dp1295
g3
I4653
sg4
F40.69865
sg5
F129486.0
sg6
V1AD4559E-741D-4883-9343-962284CE01A8
p1296
sg8
V115 ROAD
p1297
sg10
V205 STREET
p1298
sg12
I1399538783
sg13
I4653
sg14
VFRANCIS LEWIS BLVD
p1299
sg16
g17
(S'\x07\xdd\x02\x06\x00\x00\x00\x00\x00\x00'
p1300
tp1301
Rp1302
sg21
V399231
p1303
sg23
V{\u000a}
p1304
sg25
(lp1305
F3.0
aF4.0
aF0.0
aF0.0
aF1.0
aF2.0
aF2.0
aF8.0
aF13.0
aF4.0
aF4.0
aF2.0
aF1.0
aF5.0
aF13.0
aF6.0
aF8.0
aF7.0
aF14.0
aF5.0
aF7.0
aF2.0
aF2.0
aF1.0
asg27
F-73.7481729
sg28
VEB
p1306
sg30
I1399538783
sg31
V399231
p1307
sg33
F306.0
sba(i__main__
TrafficEntry
p1308
(dp1309
g3
I4654
sg4
F40.69865
sg5
F129486.0
sg6
VFA9F5845-595B-47DA-8E69-70CA669DB626
p1310
sg8
V115 ROAD
p1311
sg10
V205 STREET
p1312
sg12
I1399538783
sg13
I4654
sg14
VFRANCIS LEWIS BLVD
p1313
sg16
g17
(S'\x07\xdd\x02\x07\x00\x00\x00\x00\x00\x00'
p1314
tp1315
Rp1316
sg21
V399231
p1317
sg23
V{\u000a}
p1318
sg25
(lp1319
F2.0
aF0.0
aF1.0
aF0.0
aF0.0
aF2.0
aF3.0
aF2.0
aF10.0
aF4.0
aF4.0
aF4.0
aF4.0
aF6.0
aF8.0
aF7.0
aF6.0
aF15.0
aF9.0
aF2.0
aF8.0
aF6.0
aF9.0
aF1.0
asg27
F-73.7481729
sg28
VEB
p1320
sg30
I1399538783
sg31
V399231
p1321
sg33
F306.0
sba(i__main__
TrafficEntry
p1322
(dp1323
g3
I4655
sg4
F40.69865
sg5
F129486.0
sg6
VBDFD21FD-E33C-456D-BB45-9D0D27970DCA
p1324
sg8
V115 ROAD
p1325
sg10
V205 STREET
p1326
sg12
I1399538783
sg13
I4655
sg14
VFRANCIS LEWIS BLVD
p1327
sg16
g17
(S'\x07\xdc\n\x1b\x00\x00\x00\x00\x00\x00'
p1328
tp1329
Rp1330
sg21
V399231
p1331
sg23
V{\u000a}
p1332
sg25
(lp1333
F3.0
aF3.0
aF1.0
aF0.0
aF1.0
aF5.0
aF3.0
aF5.0
aF14.0
aF11.0
aF8.0
aF10.0
aF5.0
aF6.0
aF3.0
aF12.0
aF9.0
aF10.0
aF6.0
aF15.0
aF8.0
aF9.0
aF6.0
aF4.0
asg27
F-73.7481729
sg28
VWB
p1334
sg30
I1399538783
sg31
V399231
p1335
sg33
F306.0
sba(i__main__
TrafficEntry
p1336
(dp1337
g3
I4656
sg4
F40.69865
sg5
F129486.0
sg6
VFC1CBFF2-8AD9-4ECF-B836-94FF1138560F
p1338
sg8
V115 ROAD
p1339
sg10
V205 STREET
p1340
sg12
I1399538783
sg13
I4656
sg14
VFRANCIS LEWIS BLVD
p1341
sg16
g17
(S'\x07\xdc\n\x1c\x00\x00\x00\x00\x00\x00'
p1342
tp1343
Rp1344
sg21
V399231
p1345
sg23
V{\u000a}
p1346
sg25
(lp1347
F3.0
aF4.0
aF1.0
aF6.0
aF0.0
aF0.0
aF2.0
aF1.0
aF6.0
aF8.0
aF4.0
aF9.0
aF11.0
aF13.0
aF5.0
aF3.0
aF11.0
aF1.0
aF5.0
aF9.0
aF11.0
aF2.0
aF9.0
aF1.0
asg27
F-73.7481729
sg28
VWB
p1348
sg30
I1399538783
sg31
V399231
p1349
sg33
F306.0
sba(i__main__
TrafficEntry
p1350
(dp1351
g3
I4657
sg4
F40.69865
sg5
F129486.0
sg6
VA120BC67-A534-4579-B79B-B9E0F429717C
p1352
sg8
V115 ROAD
p1353
sg10
V205 STREET
p1354
sg12
I1399538783
sg13
I4657
sg14
VFRANCIS LEWIS BLVD
p1355
sg16
g17
(S'\x07\xdd\x01\x03\x00\x00\x00\x00\x00\x00'
p1356
tp1357
Rp1358
sg21
V399231
p1359
sg23
V{\u000a}
p1360
sg25
(lp1361
F0.0
aF1.0
aF0.0
aF0.0
aF1.0
aF4.0
aF3.0
aF8.0
aF6.0
aF5.0
aF3.0
aF6.0
aF0.0
aF4.0
aF0.0
aF6.0
aF4.0
aF8.0
aF8.0
aF7.0
aF5.0
aF3.0
aF6.0
aF2.0
asg27
F-73.7481729
sg28
VWB
p1362
sg30
I1399538783
sg31
V399231
p1363
sg33
F306.0
sba(i__main__
TrafficEntry
p1364
(dp1365
g3
I4658
sg4
F40.69865
sg5
F129486.0
sg6
V3F099F16-7BFC-4354-B0AC-B122D95D4321
p1366
sg8
V115 ROAD
p1367
sg10
V205 STREET
p1368
sg12
I1399538783
sg13
I4658
sg14
VFRANCIS LEWIS BLVD
p1369
sg16
g17
(S'\x07\xdd\x01\x1f\x00\x00\x00\x00\x00\x00'
p1370
tp1371
Rp1372
sg21
V399231
p1373
sg23
V{\u000a}
p1374
sg25
(lp1375
F5.0
aF2.0
aF2.0
aF0.0
aF1.0
aF6.0
aF3.0
aF5.0
aF5.0
aF3.0
aF1.0
aF2.0
aF6.0
aF5.0
aF15.0
aF8.0
aF7.0
aF18.0
aF14.0
aF13.0
aF15.0
aF11.0
aF7.0
aF2.0
asg27
F-73.7481729
sg28
VWB
p1376
sg30
I1399538783
sg31
V399231
p1377
sg33
F306.0
sba(i__main__
TrafficEntry
p1378
(dp1379
g3
I4659
sg4
F40.69865
sg5
F129486.0
sg6
V4C16B531-479D-4E23-882F-D81E3F97692E
p1380
sg8
V115 ROAD
p1381
sg10
V205 STREET
p1382
sg12
I1399538783
sg13
I4659
sg14
VFRANCIS LEWIS BLVD
p1383
sg16
g17
(S'\x07\xdd\x02\x01\x00\x00\x00\x00\x00\x00'
p1384
tp1385
Rp1386
sg21
V399231
p1387
sg23
V{\u000a}
p1388
sg25
(lp1389
F2.0
aF1.0
aF2.0
aF0.0
aF1.0
aF6.0
aF8.0
aF11.0
aF10.0
aF2.0
aF4.0
aF10.0
aF9.0
aF8.0
aF14.0
aF5.0
aF17.0
aF18.0
aF19.0
aF15.0
aF16.0
aF4.0
aF5.0
aF6.0
asg27
F-73.7481729
sg28
VWB
p1390
sg30
I1399538783
sg31
V399231
p1391
sg33
F306.0
sba(i__main__
TrafficEntry
p1392
(dp1393
g3
I4660
sg4
F40.69865
sg5
F129486.0
sg6
VB009D289-F326-429F-BBC0-A37CECE64B30
p1394
sg8
V115 ROAD
p1395
sg10
V205 STREET
p1396
sg12
I1399538783
sg13
I4660
sg14
VFRANCIS LEWIS BLVD
p1397
sg16
g17
(S'\x07\xdd\x02\x02\x00\x00\x00\x00\x00\x00'
p1398
tp1399
Rp1400
sg21
V399231
p1401
sg23
V{\u000a}
p1402
sg25
(lp1403
F4.0
aF5.0
aF7.0
aF0.0
aF1.0
aF2.0
aF2.0
aF5.0
aF8.0
aF10.0
aF11.0
aF7.0
aF10.0
aF16.0
aF8.0
aF11.0
aF11.0
aF12.0
aF12.0
aF5.0
aF10.0
aF8.0
aF3.0
aF4.0
asg27
F-73.7481729
sg28
VWB
p1404
sg30
I1399538783
sg31
V399231
p1405
sg33
F306.0
sba(i__main__
TrafficEntry
p1406
(dp1407
g3
I4661
sg4
F40.69865
sg5
F129486.0
sg6
V790FA4EF-09CF-4987-9BA3-F86C61E9D34E
p1408
sg8
V115 ROAD
p1409
sg10
V205 STREET
p1410
sg12
I1399538783
sg13
I4661
sg14
VFRANCIS LEWIS BLVD
p1411
sg16
g17
(S'\x07\xdd\x02\x03\x00\x00\x00\x00\x00\x00'
p1412
tp1413
Rp1414
sg21
V399231
p1415
sg23
V{\u000a}
p1416
sg25
(lp1417
F2.0
aF2.0
aF6.0
aF0.0
aF2.0
aF2.0
aF0.0
aF6.0
aF7.0
aF6.0
aF5.0
aF10.0
aF9.0
aF7.0
aF14.0
aF9.0
aF6.0
aF10.0
aF20.0
aF4.0
aF3.0
aF3.0
aF3.0
aF5.0
asg27
F-73.7481729
sg28
VWB
p1418
sg30
I1399538783
sg31
V399231
p1419
sg33
F306.0
sba(i__main__
TrafficEntry
p1420
(dp1421
g3
I4662
sg4
F40.69865
sg5
F129486.0
sg6
VA34A2C95-062A-4560-84BA-60533B704E96
p1422
sg8
V115 ROAD
p1423
sg10
V205 STREET
p1424
sg12
I1399538783
sg13
I4662
sg14
VFRANCIS LEWIS BLVD
p1425
sg16
g17
(S'\x07\xdd\x02\x04\x00\x00\x00\x00\x00\x00'
p1426
tp1427
Rp1428
sg21
V399231
p1429
sg23
V{\u000a}
p1430
sg25
(lp1431
F3.0
aF1.0
aF0.0
aF0.0
aF0.0
aF5.0
aF6.0
aF14.0
aF14.0
aF6.0
aF6.0
aF7.0
aF4.0
aF3.0
aF10.0
aF6.0
aF10.0
aF14.0
aF5.0
aF12.0
aF13.0
aF6.0
aF9.0
aF3.0
asg27
F-73.7481729
sg28
VWB
p1432
sg30
I1399538783
sg31
V399231
p1433
sg33
F306.0
sba(i__main__
TrafficEntry
p1434
(dp1435
g3
I4663
sg4
F40.69865
sg5
F129486.0
sg6
VA73B82C7-B270-4637-B5FD-1BA97B7838B3
p1436
sg8
V115 ROAD
p1437
sg10
V205 STREET
p1438
sg12
I1399538783
sg13
I4663
sg14
VFRANCIS LEWIS BLVD
p1439
sg16
g17
(S'\x07\xdd\x02\x05\x00\x00\x00\x00\x00\x00'
p1440
tp1441
Rp1442
sg21
V399231
p1443
sg23
V{\u000a}
p1444
sg25
(lp1445
F8.0
aF2.0
aF0.0
aF0.0
aF1.0
aF4.0
aF4.0
aF11.0
aF13.0
aF6.0
aF6.0
aF5.0
aF7.0
aF10.0
aF9.0
aF9.0
aF4.0
aF20.0
aF14.0
aF6.0
aF12.0
aF11.0
aF8.0
aF2.0
asg27
F-73.7481729
sg28
VWB
p1446
sg30
I1399538783
sg31
V399231
p1447
sg33
F306.0
sba(i__main__
TrafficEntry
p1448
(dp1449
g3
I4664
sg4
F40.69865
sg5
F129486.0
sg6
V02C5DFA1-3A8C-445B-BB63-AEA455502665
p1450
sg8
V115 ROAD
p1451
sg10
V205 STREET
p1452
sg12
I1399538783
sg13
I4664
sg14
VFRANCIS LEWIS BLVD
p1453
sg16
g17
(S'\x07\xdd\x02\x06\x00\x00\x00\x00\x00\x00'
p1454
tp1455
Rp1456
sg21
V399231
p1457
sg23
V{\u000a}
p1458
sg25
(lp1459
F3.0
aF4.0
aF1.0
aF0.0
aF1.0
aF5.0
aF2.0
aF16.0
aF19.0
aF6.0
aF7.0
aF2.0
aF4.0
aF6.0
aF16.0
aF7.0
aF10.0
aF13.0
aF16.0
aF7.0
aF16.0
aF3.0
aF7.0
aF1.0
asg27
F-73.7481729
sg28
VWB
p1460
sg30
I1399538783
sg31
V399231
p1461
sg33
F306.0
sba(i__main__
TrafficEntry
p1462
(dp1463
g3
I4665
sg4
F40.69865
sg5
F129486.0
sg6
V746F2433-1E3B-45E1-9B23-1B11E45C30A8
p1464
sg8
V115 ROAD
p1465
sg10
V205 STREET
p1466
sg12
I1399538783
sg13
I4665
sg14
VFRANCIS LEWIS BLVD
p1467
sg16
g17
(S'\x07\xdd\x02\x07\x00\x00\x00\x00\x00\x00'
p1468
tp1469
Rp1470
sg21
V399231
p1471
sg23
V{\u000a}
p1472
sg25
(lp1473
F3.0
aF0.0
aF1.0
aF0.0
aF0.0
aF4.0
aF5.0
aF8.0
aF13.0
aF7.0
aF7.0
aF7.0
aF6.0
aF10.0
aF11.0
aF8.0
aF14.0
aF14.0
aF11.0
aF10.0
aF17.0
aF12.0
aF11.0
aF1.0
asg27
F-73.7481729
sg28
VWB
p1474
sg30
I1399538783
sg31
V399231
p1475
sg33
F306.0
sba(i__main__
TrafficEntry
p1476
(dp1477
g3
I4919
sg4
F40.8560731
sg5
F154613.0
sg6
V57CE6FC8-EAAB-4D81-8878-CEC65C5E0CFA
p1478
sg8
V ESPLANADE  
p1479
sg10
V HAIGHT AVENUE  
p1480
sg12
I1399538784
sg13
I4919
sg14
V LURTING AVENUE   
p1481
sg16
g17
(S'\x07\xdc\n\x0c\x00\x00\x00\x00\x00\x00'
p1482
tp1483
Rp1484
sg21
V399231
p1485
sg23
V{\u000a}
p1486
sg25
(lp1487
F12.0
aF5.0
aF8.0
aF0.0
aF11.0
aF28.0
aF40.0
aF73.0
aF35.0
aF41.0
aF30.0
aF37.0
aF26.0
aF38.0
aF46.0
aF32.0
aF38.0
aF47.0
aF43.0
aF42.0
aF34.0
aF25.0
aF18.0
aF18.0
asg27
F-73.85827505
sg28
VEB
p1488
sg30
I1399538784
sg31
V399231
p1489
sg33
F320.0
sba(i__main__
TrafficEntry
p1490
(dp1491
g3
I4924
sg4
F40.8560731
sg5
F154613.0
sg6
VC18E5923-D5F7-464B-9F58-E9F47F0C6009
p1492
sg8
V ESPLANADE  
p1493
sg10
V HAIGHT AVENUE  
p1494
sg12
I1399538784
sg13
I4924
sg14
V LURTING AVENUE   
p1495
sg16
g17
(S'\x07\xdc\n\x11\x00\x00\x00\x00\x00\x00'
p1496
tp1497
Rp1498
sg21
V399231
p1499
sg23
V{\u000a}
p1500
sg25
(lp1501
F23.0
aF7.0
aF5.0
aF0.0
aF5.0
aF15.0
aF56.0
aF56.0
aF48.0
aF34.0
aF31.0
aF43.0
aF51.0
aF33.0
aF65.0
aF75.0
aF43.0
aF65.0
aF49.0
aF53.0
aF51.0
aF22.0
aF50.0
aF54.0
asg27
F-73.85827505
sg28
VEB
p1502
sg30
I1399538784
sg31
V399231
p1503
sg33
F320.0
sba(i__main__
TrafficEntry
p1504
(dp1505
g3
I4925
sg4
F40.8560731
sg5
F154613.0
sg6
V05D4C2E1-4BE7-486D-8C09-DA271A830EE4
p1506
sg8
V ESPLANADE  
p1507
sg10
V HAIGHT AVENUE  
p1508
sg12
I1399538784
sg13
I4925
sg14
V LURTING AVENUE   
p1509
sg16
g17
(S'\x07\xdc\n\x12\x00\x00\x00\x00\x00\x00'
p1510
tp1511
Rp1512
sg21
V399231
p1513
sg23
V{\u000a}
p1514
sg25
(lp1515
F26.0
aF12.0
aF5.0
aF0.0
aF4.0
aF10.0
aF64.0
aF74.0
aF73.0
aF37.0
aF45.0
aF38.0
aF30.0
aF39.0
aF72.0
aF67.0
aF51.0
aF50.0
aF55.0
aF65.0
aF57.0
aF27.0
aF31.0
aF34.0
asg27
F-73.85827505
sg28
VEB
p1516
sg30
I1399538784
sg31
V399231
p1517
sg33
F320.0
sba(i__main__
TrafficEntry
p1518
(dp1519
g3
I4926
sg4
F40.8560731
sg5
F154613.0
sg6
VDD5766DC-BFBD-4880-9636-C42B9F79903C
p1520
sg8
V ESPLANADE  
p1521
sg10
V HAIGHT AVENUE  
p1522
sg12
I1399538784
sg13
I4926
sg14
V LURTING AVENUE   
p1523
sg16
g17
(S'\x07\xdc\n\x13\x00\x00\x00\x00\x00\x00'
p1524
tp1525
Rp1526
sg21
V399231
p1527
sg23
V{\u000a}
p1528
sg25
(lp1529
F15.0
aF9.0
aF11.0
aF0.0
aF7.0
aF12.0
aF45.0
aF58.0
aF60.0
aF51.0
aF43.0
aF24.0
aF38.0
aF30.0
aF36.0
aF50.0
aF19.0
aF41.0
aF48.0
aF52.0
aF31.0
aF26.0
aF16.0
aF32.0
asg27
F-73.85827505
sg28
VEB
p1530
sg30
I1399538784
sg31
V399231
p1531
sg33
F320.0
sba(i__main__
TrafficEntry
p1532
(dp1533
g3
I4933
sg4
F40.8560731
sg5
F154613.0
sg6
VEDEE4B2D-F27F-4017-AFC0-F61571FCEEFC
p1534
sg8
V ESPLANADE  
p1535
sg10
V HAIGHT AVENUE  
p1536
sg12
I1399538784
sg13
I4933
sg14
V LURTING AVENUE   
p1537
sg16
g17
(S'\x07\xdc\n\x10\x00\x00\x00\x00\x00\x00'
p1538
tp1539
Rp1540
sg21
V399231
p1541
sg23
V{\u000a}
p1542
sg25
(lp1543
F6.0
aF7.0
aF0.0
aF2.0
aF5.0
aF8.0
aF34.0
aF40.0
aF44.0
aF41.0
aF32.0
aF29.0
aF22.0
aF23.0
aF46.0
aF48.0
aF23.0
aF43.0
aF46.0
aF39.0
aF24.0
aF10.0
aF15.0
aF17.0
asg27
F-73.85827505
sg28
VWB
p1544
sg30
I1399538784
sg31
V399231
p1545
sg33
F320.0
sba(i__main__
TrafficEntry
p1546
(dp1547
g3
I4934
sg4
F40.8560731
sg5
F154613.0
sg6
V7D2F5996-A552-4AD1-B075-FAA9E18A87FD
p1548
sg8
V ESPLANADE  
p1549
sg10
V HAIGHT AVENUE  
p1550
sg12
I1399538784
sg13
I4934
sg14
V LURTING AVENUE   
p1551
sg16
g17
(S'\x07\xdc\n\x11\x00\x00\x00\x00\x00\x00'
p1552
tp1553
Rp1554
sg21
V399231
p1555
sg23
V{\u000a}
p1556
sg25
(lp1557
F14.0
aF6.0
aF0.0
aF1.0
aF3.0
aF9.0
aF29.0
aF43.0
aF33.0
aF24.0
aF13.0
aF26.0
aF31.0
aF35.0
aF49.0
aF55.0
aF37.0
aF52.0
aF29.0
aF32.0
aF34.0
aF19.0
aF16.0
aF23.0
asg27
F-73.85827505
sg28
VWB
p1558
sg30
I1399538784
sg31
V399231
p1559
sg33
F320.0
sba(i__main__
TrafficEntry
p1560
(dp1561
g3
I4936
sg4
F40.8560731
sg5
F154613.0
sg6
V0CC120BF-F868-4A4E-82C6-8DB89B8EA7AE
p1562
sg8
V ESPLANADE  
p1563
sg10
V HAIGHT AVENUE  
p1564
sg12
I1399538784
sg13
I4936
sg14
V LURTING AVENUE   
p1565
sg16
g17
(S'\x07\xdc\n\x13\x00\x00\x00\x00\x00\x00'
p1566
tp1567
Rp1568
sg21
V399231
p1569
sg23
V{\u000a}
p1570
sg25
(lp1571
F12.0
aF6.0
aF5.0
aF0.0
aF9.0
aF7.0
aF33.0
aF38.0
aF40.0
aF39.0
aF38.0
aF20.0
aF28.0
aF21.0
aF29.0
aF38.0
aF33.0
aF36.0
aF30.0
aF28.0
aF20.0
aF15.0
aF17.0
aF11.0
asg27
F-73.85827505
sg28
VWB
p1572
sg30
I1399538784
sg31
V399231
p1573
sg33
F320.0
sba(i__main__
TrafficEntry
p1574
(dp1575
g3
I5163
sg4
F40.669162650000004
sg5
F157659.0
sg6
V5362A6B6-AA08-4D20-9F20-0C40E83AA117
p1576
sg8
VLINDEN BOULEVARD
p1577
sg10
VAUTUMN AVENUE
p1578
sg12
I1399538784
sg13
I5163
sg14
VLINCOLN AVENUE
p1579
sg16
g17
(S'\x07\xdd\x02\x05\x00\x00\x00\x00\x00\x00'
p1580
tp1581
Rp1582
sg21
V399231
p1583
sg23
V{\u000a}
p1584
sg25
(lp1585
F237.0
aF163.0
aF116.0
aF145.0
aF229.0
aF419.0
aF993.0
aF1641.0
aF1553.0
aF1220.0
aF931.0
aF849.0
aF756.0
aF846.0
aF841.0
aF697.0
aF38.0
aF12.0
aF5.0
aF4.0
aF0.0
aF2.0
aF3.0
aF3.0
asg27
F-73.8660466
sg28
VWB
p1586
sg30
I1399538784
sg31
V399231
p1587
sg33
F333.0
sba(i__main__
TrafficEntry
p1588
(dp1589
g3
I5164
sg4
F40.669162650000004
sg5
F157659.0
sg6
VF2585D05-2ABE-4DE0-B96E-205D34390169
p1590
sg8
VLINDEN BOULEVARD
p1591
sg10
VAUTUMN AVENUE
p1592
sg12
I1399538784
sg13
I5164
sg14
VLINCOLN AVENUE
p1593
sg16
g17
(S'\x07\xdd\x02\x06\x00\x00\x00\x00\x00\x00'
p1594
tp1595
Rp1596
sg21
V399231
p1597
sg23
V{\u000a}
p1598
sg25
(lp1599
F0.0
aF0.0
aF0.0
aF1.0
aF0.0
aF6.0
aF9.0
aF16.0
aF20.0
aF14.0
aF21.0
aF9.0
aF1.0
aF9.0
aF8.0
aF13.0
aF11.0
aF7.0
aF5.0
aF4.0
aF2.0
aF0.0
aF5.0
aF5.0
asg27
F-73.8660466
sg28
VWB
p1600
sg30
I1399538784
sg31
V399231
p1601
sg33
F333.0
sba(i__main__
TrafficEntry
p1602
(dp1603
g3
I5165
sg4
F40.669162650000004
sg5
F157659.0
sg6
V27ED8BEB-22DC-4B0D-99CB-745835C1156F
p1604
sg8
VLINDEN BOULEVARD
p1605
sg10
VAUTUMN AVENUE
p1606
sg12
I1399538784
sg13
I5165
sg14
VLINCOLN AVENUE
p1607
sg16
g17
(S'\x07\xdd\x02\x07\x00\x00\x00\x00\x00\x00'
p1608
tp1609
Rp1610
sg21
V399231
p1611
sg23
V{\u000a}
p1612
sg25
(lp1613
F2.0
aF0.0
aF120.0
aF133.0
aF230.0
aF435.0
aF1108.0
aF1834.0
aF1600.0
aF1165.0
aF955.0
aF820.0
aF856.0
aF887.0
aF946.0
aF924.0
aF922.0
aF890.0
aF779.0
aF753.0
aF593.0
aF485.0
aF467.0
aF429.0
asg27
F-73.8660466
sg28
VWB
p1614
sg30
I1399538784
sg31
V399231
p1615
sg33
F333.0
sba(i__main__
TrafficEntry
p1616
(dp1617
g3
I5229
sg4
F40.68255124999999
sg5
F158132.0
sg6
VE31E1ACF-5A1E-477E-949E-C6C49730D17F
p1618
sg8
V ATLANTIC AVENUE 
p1619
sg10
V LINCOLN AVENUE 
p1620
sg12
I1399538784
sg13
I5229
sg14
V NICHOLS AVENUE 
p1621
sg16
g17
(S'\x07\xdd\x02\x06\x00\x00\x00\x00\x00\x00'
p1622
tp1623
Rp1624
sg21
V399231
p1625
sg23
V{\u000a}
p1626
sg25
(lp1627
F0.0
aF0.0
aF0.0
aF0.0
aF0.0
aF2.0
aF6.0
aF8.0
aF17.0
aF15.0
aF3.0
aF0.0
aF6.0
aF4.0
aF0.0
aF0.0
aF4.0
aF2.0
aF0.0
aF10.0
aF10.0
aF2.0
aF261.0
aF231.0
asg27
F-73.86853495
sg28
VWB
p1628
sg30
I1399538784
sg31
V399231
p1629
sg33
F336.0
sba.